---
triple:          'arm64-apple-darwin'
binary-path:     rpn
relocations:
  - { offsetInCU: 0x2F62, offset: 0x2F62, size: 0x8, addend: 0x0, symName: __ZNSt3__124__put_character_sequenceB7v160006IcNS_11char_traitsIcEEEERNS_13basic_ostreamIT_T0_EES7_PKS4_m, symObjAddr: 0x448, symBinAddr: 0x100000DA0, symSize: 0x1F4 }
  - { offsetInCU: 0x4899, offset: 0x4899, size: 0x8, addend: 0x0, symName: __ZNSt3__1lsB7v160006INS_11char_traitsIcEEEERNS_13basic_ostreamIcT_EES6_PKc, symObjAddr: 0x168, symBinAddr: 0x100000AC0, symSize: 0x48 }
  - { offsetInCU: 0x48DF, offset: 0x48DF, size: 0x8, addend: 0x0, symName: __ZNSt3__14endlB7v160006IcNS_11char_traitsIcEEEERNS_13basic_ostreamIT_T0_EES7_, symObjAddr: 0x1DC, symBinAddr: 0x100000B34, symSize: 0x58 }
  - { offsetInCU: 0x491F, offset: 0x491F, size: 0x8, addend: 0x0, symName: __ZNSt3__119__debug_db_insert_cB7v160006INS_12basic_stringIcNS_11char_traitsIcEENS_9allocatorIcEEEEEEvPT_, symObjAddr: 0x358, symBinAddr: 0x100000CB0, symSize: 0x10 }
  - { offsetInCU: 0x4950, offset: 0x4950, size: 0x8, addend: 0x0, symName: __ZNSt3__118__constexpr_strlenB7v160006EPKc, symObjAddr: 0x424, symBinAddr: 0x100000D7C, symSize: 0x24 }
  - { offsetInCU: 0x497C, offset: 0x497C, size: 0x8, addend: 0x0, symName: __ZNSt3__116__pad_and_outputB7v160006IcNS_11char_traitsIcEEEENS_19ostreambuf_iteratorIT_T0_EES6_PKS4_S8_S8_RNS_8ios_baseES4_, symObjAddr: 0x658, symBinAddr: 0x100000FB0, symSize: 0x248 }
  - { offsetInCU: 0x4A4B, offset: 0x4A4B, size: 0x8, addend: 0x0, symName: __ZNSt3__112__to_addressB7v160006IKcEEPT_S3_, symObjAddr: 0xAD8, symBinAddr: 0x100001430, symSize: 0x14 }
  - { offsetInCU: 0x4A80, offset: 0x4A80, size: 0x8, addend: 0x0, symName: __ZNSt3__130__libcpp_is_constant_evaluatedB7v160006Ev, symObjAddr: 0xC04, symBinAddr: 0x10000155C, symSize: 0xC }
  - { offsetInCU: 0x4AD0, offset: 0x4AD0, size: 0x8, addend: 0x0, symName: __ZNSt3__19use_facetB7v160006INS_5ctypeIcEEEERKT_RKNS_6localeE, symObjAddr: 0xDBC, symBinAddr: 0x100001714, symSize: 0x2C }
  - { offsetInCU: 0x8C6C, offset: 0x8C6C, size: 0x8, addend: 0x0, symName: _main, symObjAddr: 0x0, symBinAddr: 0x100000958, symSize: 0x168 }
  - { offsetInCU: 0x8CDB, offset: 0x8CDB, size: 0x8, addend: 0x0, symName: __ZNSt3__113basic_ostreamIcNS_11char_traitsIcEEElsB7v160006EPFRS3_S4_E, symObjAddr: 0x1B0, symBinAddr: 0x100000B08, symSize: 0x2C }
  - { offsetInCU: 0x8D12, offset: 0x8D12, size: 0x8, addend: 0x0, symName: __ZNSt3__112basic_stringIcNS_11char_traitsIcEENS_9allocatorIcEEEC1B7v160006IDnEEPKc, symObjAddr: 0x234, symBinAddr: 0x100000B8C, symSize: 0x34 }
  - { offsetInCU: 0x8D4E, offset: 0x8D4E, size: 0x8, addend: 0x0, symName: __ZNSt3__112basic_stringIcNS_11char_traitsIcEENS_9allocatorIcEEEC2B7v160006IDnEEPKc, symObjAddr: 0x274, symBinAddr: 0x100000BCC, symSize: 0x60 }
  - { offsetInCU: 0x8D8F, offset: 0x8D8F, size: 0x8, addend: 0x0, symName: __ZNSt3__117__compressed_pairINS_12basic_stringIcNS_11char_traitsIcEENS_9allocatorIcEEE5__repES5_EC1B7v160006INS_18__default_init_tagESA_EEOT_OT0_, symObjAddr: 0x2D4, symBinAddr: 0x100000C2C, symSize: 0x3C }
  - { offsetInCU: 0x8DE5, offset: 0x8DE5, size: 0x8, addend: 0x0, symName: __ZNSt3__111char_traitsIcE6lengthEPKc, symObjAddr: 0x310, symBinAddr: 0x100000C68, symSize: 0x48 }
  - { offsetInCU: 0x8E07, offset: 0x8E07, size: 0x8, addend: 0x0, symName: __ZNSt3__117__compressed_pairINS_12basic_stringIcNS_11char_traitsIcEENS_9allocatorIcEEE5__repES5_EC2B7v160006INS_18__default_init_tagESA_EEOT_OT0_, symObjAddr: 0x368, symBinAddr: 0x100000CC0, symSize: 0x3C }
  - { offsetInCU: 0x8E5D, offset: 0x8E5D, size: 0x8, addend: 0x0, symName: __ZNSt3__122__compressed_pair_elemINS_12basic_stringIcNS_11char_traitsIcEENS_9allocatorIcEEE5__repELi0ELb0EEC2B7v160006ENS_18__default_init_tagE, symObjAddr: 0x3A4, symBinAddr: 0x100000CFC, symSize: 0x14 }
  - { offsetInCU: 0x8E8F, offset: 0x8E8F, size: 0x8, addend: 0x0, symName: __ZNSt3__122__compressed_pair_elemINS_9allocatorIcEELi1ELb1EEC2B7v160006ENS_18__default_init_tagE, symObjAddr: 0x3B8, symBinAddr: 0x100000D10, symSize: 0x2C }
  - { offsetInCU: 0x8EC1, offset: 0x8EC1, size: 0x8, addend: 0x0, symName: __ZNSt3__19allocatorIcEC2B7v160006Ev, symObjAddr: 0x3E4, symBinAddr: 0x100000D3C, symSize: 0x2C }
  - { offsetInCU: 0x8EE9, offset: 0x8EE9, size: 0x8, addend: 0x0, symName: __ZNSt3__116__non_trivial_ifILb1ENS_9allocatorIcEEEC2B7v160006Ev, symObjAddr: 0x410, symBinAddr: 0x100000D68, symSize: 0x14 }
  - { offsetInCU: 0x8F2F, offset: 0x8F2F, size: 0x8, addend: 0x0, symName: __ZNKSt3__113basic_ostreamIcNS_11char_traitsIcEEE6sentrycvbB7v160006Ev, symObjAddr: 0x63C, symBinAddr: 0x100000F94, symSize: 0x1C }
  - { offsetInCU: 0x8F53, offset: 0x8F53, size: 0x8, addend: 0x0, symName: __ZNSt3__119ostreambuf_iteratorIcNS_11char_traitsIcEEEC1B7v160006ERNS_13basic_ostreamIcS2_EE, symObjAddr: 0x8A0, symBinAddr: 0x1000011F8, symSize: 0x34 }
  - { offsetInCU: 0x8F89, offset: 0x8F89, size: 0x8, addend: 0x0, symName: __ZNKSt3__18ios_base5flagsB7v160006Ev, symObjAddr: 0x8D4, symBinAddr: 0x10000122C, symSize: 0x18 }
  - { offsetInCU: 0x8FAF, offset: 0x8FAF, size: 0x8, addend: 0x0, symName: __ZNKSt3__19basic_iosIcNS_11char_traitsIcEEE4fillB7v160006Ev, symObjAddr: 0x8EC, symBinAddr: 0x100001244, symSize: 0x64 }
  - { offsetInCU: 0x8FD5, offset: 0x8FD5, size: 0x8, addend: 0x0, symName: __ZNKSt3__119ostreambuf_iteratorIcNS_11char_traitsIcEEE6failedB7v160006Ev, symObjAddr: 0x950, symBinAddr: 0x1000012A8, symSize: 0x24 }
  - { offsetInCU: 0x8FF9, offset: 0x8FF9, size: 0x8, addend: 0x0, symName: __ZNSt3__19basic_iosIcNS_11char_traitsIcEEE8setstateB7v160006Ej, symObjAddr: 0x974, symBinAddr: 0x1000012CC, symSize: 0x2C }
  - { offsetInCU: 0x902C, offset: 0x902C, size: 0x8, addend: 0x0, symName: __ZNKSt3__18ios_base5widthB7v160006Ev, symObjAddr: 0x9A0, symBinAddr: 0x1000012F8, symSize: 0x18 }
  - { offsetInCU: 0x9052, offset: 0x9052, size: 0x8, addend: 0x0, symName: __ZNSt3__115basic_streambufIcNS_11char_traitsIcEEE5sputnB7v160006EPKcl, symObjAddr: 0x9B8, symBinAddr: 0x100001310, symSize: 0x3C }
  - { offsetInCU: 0x9092, offset: 0x9092, size: 0x8, addend: 0x0, symName: __ZNSt3__112basic_stringIcNS_11char_traitsIcEENS_9allocatorIcEEEC1B7v160006Emc, symObjAddr: 0x9F4, symBinAddr: 0x10000134C, symSize: 0x3C }
  - { offsetInCU: 0x90D8, offset: 0x90D8, size: 0x8, addend: 0x0, symName: __ZNKSt3__112basic_stringIcNS_11char_traitsIcEENS_9allocatorIcEEE4dataB7v160006Ev, symObjAddr: 0xA30, symBinAddr: 0x100001388, symSize: 0x28 }
  - { offsetInCU: 0x90FC, offset: 0x90FC, size: 0x8, addend: 0x0, symName: __ZNSt3__18ios_base5widthB7v160006El, symObjAddr: 0xA58, symBinAddr: 0x1000013B0, symSize: 0x2C }
  - { offsetInCU: 0x9140, offset: 0x9140, size: 0x8, addend: 0x0, symName: __ZNSt3__112basic_stringIcNS_11char_traitsIcEENS_9allocatorIcEEEC2B7v160006Emc, symObjAddr: 0xA84, symBinAddr: 0x1000013DC, symSize: 0x54 }
  - { offsetInCU: 0x9186, offset: 0x9186, size: 0x8, addend: 0x0, symName: __ZNKSt3__112basic_stringIcNS_11char_traitsIcEENS_9allocatorIcEEE13__get_pointerB7v160006Ev, symObjAddr: 0xAEC, symBinAddr: 0x100001444, symSize: 0x54 }
  - { offsetInCU: 0x91AA, offset: 0x91AA, size: 0x8, addend: 0x0, symName: __ZNKSt3__112basic_stringIcNS_11char_traitsIcEENS_9allocatorIcEEE9__is_longB7v160006Ev, symObjAddr: 0xB40, symBinAddr: 0x100001498, symSize: 0x74 }
  - { offsetInCU: 0x91CE, offset: 0x91CE, size: 0x8, addend: 0x0, symName: __ZNKSt3__112basic_stringIcNS_11char_traitsIcEENS_9allocatorIcEEE18__get_long_pointerB7v160006Ev, symObjAddr: 0xBB4, symBinAddr: 0x10000150C, symSize: 0x28 }
  - { offsetInCU: 0x91F2, offset: 0x91F2, size: 0x8, addend: 0x0, symName: __ZNKSt3__112basic_stringIcNS_11char_traitsIcEENS_9allocatorIcEEE19__get_short_pointerB7v160006Ev, symObjAddr: 0xBDC, symBinAddr: 0x100001534, symSize: 0x28 }
  - { offsetInCU: 0x9216, offset: 0x9216, size: 0x8, addend: 0x0, symName: __ZNKSt3__117__compressed_pairINS_12basic_stringIcNS_11char_traitsIcEENS_9allocatorIcEEE5__repES5_E5firstB7v160006Ev, symObjAddr: 0xC10, symBinAddr: 0x100001568, symSize: 0x24 }
  - { offsetInCU: 0x923A, offset: 0x923A, size: 0x8, addend: 0x0, symName: __ZNKSt3__122__compressed_pair_elemINS_12basic_stringIcNS_11char_traitsIcEENS_9allocatorIcEEE5__repELi0ELb0EE5__getB7v160006Ev, symObjAddr: 0xC34, symBinAddr: 0x10000158C, symSize: 0x14 }
  - { offsetInCU: 0x925E, offset: 0x925E, size: 0x8, addend: 0x0, symName: __ZNSt3__114pointer_traitsIPKcE10pointer_toB7v160006ERS1_, symObjAddr: 0xC48, symBinAddr: 0x1000015A0, symSize: 0x14 }
  - { offsetInCU: 0x9280, offset: 0x9280, size: 0x8, addend: 0x0, symName: __ZNSt3__119ostreambuf_iteratorIcNS_11char_traitsIcEEEC2B7v160006ERNS_13basic_ostreamIcS2_EE, symObjAddr: 0xC5C, symBinAddr: 0x1000015B4, symSize: 0x68 }
  - { offsetInCU: 0x92B6, offset: 0x92B6, size: 0x8, addend: 0x0, symName: __ZNKSt3__19basic_iosIcNS_11char_traitsIcEEE5rdbufB7v160006Ev, symObjAddr: 0xCC4, symBinAddr: 0x10000161C, symSize: 0x24 }
  - { offsetInCU: 0x92DC, offset: 0x92DC, size: 0x8, addend: 0x0, symName: __ZNKSt3__18ios_base5rdbufB7v160006Ev, symObjAddr: 0xCE8, symBinAddr: 0x100001640, symSize: 0x18 }
  - { offsetInCU: 0x9300, offset: 0x9300, size: 0x8, addend: 0x0, symName: __ZNSt3__111char_traitsIcE11eq_int_typeEii, symObjAddr: 0xD00, symBinAddr: 0x100001658, symSize: 0x28 }
  - { offsetInCU: 0x9330, offset: 0x9330, size: 0x8, addend: 0x0, symName: __ZNSt3__111char_traitsIcE3eofEv, symObjAddr: 0xD28, symBinAddr: 0x100001680, symSize: 0x8 }
  - { offsetInCU: 0x9343, offset: 0x9343, size: 0x8, addend: 0x0, symName: __ZNKSt3__19basic_iosIcNS_11char_traitsIcEEE5widenB7v160006Ec, symObjAddr: 0xD30, symBinAddr: 0x100001688, symSize: 0x8C }
  - { offsetInCU: 0x93AF, offset: 0x93AF, size: 0x8, addend: 0x0, symName: __ZNKSt3__15ctypeIcE5widenB7v160006Ec, symObjAddr: 0xDE8, symBinAddr: 0x100001740, symSize: 0x38 }
  - { offsetInCU: 0x93E2, offset: 0x93E2, size: 0x8, addend: 0x0, symName: __ZNSt3__18ios_base8setstateB7v160006Ej, symObjAddr: 0xE20, symBinAddr: 0x100001778, symSize: 0x34 }
  - { offsetInCU: 0x8C82, offset: 0x1240A, size: 0x8, addend: 0x0, symName: __ZNSt3__1eqB7v160006IcNS_11char_traitsIcEENS_9allocatorIcEEEEbRKNS_12basic_stringIT_T0_T1_EEPKS6_, symObjAddr: 0x308, symBinAddr: 0x100001AB4, symSize: 0xC0 }
  - { offsetInCU: 0x95B9, offset: 0x12D41, size: 0x8, addend: 0x0, symName: __ZNSt3__17getlineB7v160006IcNS_11char_traitsIcEENS_9allocatorIcEEEERNS_13basic_istreamIT_T0_EES9_RNS_12basic_stringIS6_S7_T1_EES6_, symObjAddr: 0x7D8, symBinAddr: 0x100001F84, symSize: 0x238 }
  - { offsetInCU: 0x97F2, offset: 0x12F7A, size: 0x8, addend: 0x0, symName: __ZNSt3__1lsB7v160006IcNS_11char_traitsIcEENS_9allocatorIcEEEERNS_13basic_ostreamIT_T0_EES9_RKNS_12basic_stringIS6_S7_T1_EE, symObjAddr: 0x1858, symBinAddr: 0x100002F2C, symSize: 0x4C }
  - { offsetInCU: 0x984A, offset: 0x12FD2, size: 0x8, addend: 0x0, symName: __ZNSt3__1neB7v160006ERKNS_16__deque_iteratorINS_12basic_stringIcNS_11char_traitsIcEENS_9allocatorIcEEEEPS6_RS6_PS7_lLl170EEESC_, symObjAddr: 0x2158, symBinAddr: 0x100003624, symSize: 0x34 }
  - { offsetInCU: 0x9887, offset: 0x1300F, size: 0x8, addend: 0x0, symName: __ZNSt3__1eqB7v160006ERKNS_16__deque_iteratorINS_12basic_stringIcNS_11char_traitsIcEENS_9allocatorIcEEEEPS6_RS6_PS7_lLl170EEESC_, symObjAddr: 0x23EC, symBinAddr: 0x1000038B8, symSize: 0x30 }
  - { offsetInCU: 0x98C5, offset: 0x1304D, size: 0x8, addend: 0x0, symName: __ZNSt3__119__libcpp_deallocateB7v160006EPvmm, symObjAddr: 0x2548, symBinAddr: 0x100003A08, symSize: 0x30 }
  - { offsetInCU: 0x990E, offset: 0x13096, size: 0x8, addend: 0x0, symName: __ZNSt3__127__do_deallocate_handle_sizeB7v160006IJEEEvPvmDpT_, symObjAddr: 0x2578, symBinAddr: 0x100003A38, symSize: 0x28 }
  - { offsetInCU: 0x994E, offset: 0x130D6, size: 0x8, addend: 0x0, symName: __ZNSt3__124__libcpp_operator_deleteB7v160006IJPvEEEvDpT_, symObjAddr: 0x25A0, symBinAddr: 0x100003A60, symSize: 0x24 }
  - { offsetInCU: 0x9985, offset: 0x1310D, size: 0x8, addend: 0x0, symName: __ZNSt3__112__to_addressB7v160006IPNS_12basic_stringIcNS_11char_traitsIcEENS_9allocatorIcEEEEEEPT_S9_, symObjAddr: 0x282C, symBinAddr: 0x100003CEC, symSize: 0x14 }
  - { offsetInCU: 0x99BA, offset: 0x13142, size: 0x8, addend: 0x0, symName: __ZNSt3__1neB7v160006ERKNS_16__deque_iteratorIdPdRdPS1_lLl512EEES6_, symObjAddr: 0x2F8C, symBinAddr: 0x10000444C, symSize: 0x34 }
  - { offsetInCU: 0x99F7, offset: 0x1317F, size: 0x8, addend: 0x0, symName: __ZNSt3__1eqB7v160006ERKNS_16__deque_iteratorIdPdRdPS1_lLl512EEES6_, symObjAddr: 0x320C, symBinAddr: 0x1000046CC, symSize: 0x30 }
  - { offsetInCU: 0x9A35, offset: 0x131BD, size: 0x8, addend: 0x0, symName: __ZNSt3__112__to_addressB7v160006IPdEEPT_S3_, symObjAddr: 0x3598, symBinAddr: 0x100004A58, symSize: 0x14 }
  - { offsetInCU: 0x9A9D, offset: 0x13225, size: 0x8, addend: 0x0, symName: __ZNSt3__117__libcpp_allocateB7v160006Emm, symObjAddr: 0x4354, symBinAddr: 0x100005760, symSize: 0x28 }
  - { offsetInCU: 0x9ADA, offset: 0x13262, size: 0x8, addend: 0x0, symName: __ZNSt3__121__libcpp_operator_newB7v160006IJmEEEPvDpT_, symObjAddr: 0x4390, symBinAddr: 0x10000579C, symSize: 0x24 }
  - { offsetInCU: 0x9B14, offset: 0x1329C, size: 0x8, addend: 0x0, symName: __ZNSt3__125__debug_db_invalidate_allB7v160006INS_12basic_stringIcNS_11char_traitsIcEENS_9allocatorIcEEEEEEvPT_, symObjAddr: 0x4708, symBinAddr: 0x100005A9C, symSize: 0x10 }
  - { offsetInCU: 0x9D51, offset: 0x134D9, size: 0x8, addend: 0x0, symName: __ZNSt3__13maxB7v160006ImEERKT_S3_S3_, symObjAddr: 0x557C, symBinAddr: 0x1000068C4, symSize: 0x2C }
  - { offsetInCU: 0xA220, offset: 0x139A8, size: 0x8, addend: 0x0, symName: __ZNSt3__14swapB7v160006IPPNS_12basic_stringIcNS_11char_traitsIcEENS_9allocatorIcEEEEEEvRT_SA_, symObjAddr: 0x5BAC, symBinAddr: 0x100006EF4, symSize: 0x3C }
  - { offsetInCU: 0xA271, offset: 0x139F9, size: 0x8, addend: 0x0, symName: __ZNSt3__14moveB7v160006IPPNS_12basic_stringIcNS_11char_traitsIcEENS_9allocatorIcEEEES8_EET0_T_SA_S9_, symObjAddr: 0x5C90, symBinAddr: 0x100006FD8, symSize: 0x40 }
  - { offsetInCU: 0xA2EA, offset: 0x13A72, size: 0x8, addend: 0x0, symName: __ZNSt3__16__moveB7v160006INS_17_ClassicAlgPolicyEPPNS_12basic_stringIcNS_11char_traitsIcEENS_9allocatorIcEEEES9_S9_EENS_4pairIT0_T2_EESB_T1_SC_, symObjAddr: 0x5E3C, symBinAddr: 0x100007184, symSize: 0x44 }
  - { offsetInCU: 0xA356, offset: 0x13ADE, size: 0x8, addend: 0x0, symName: __ZNSt3__123__dispatch_copy_or_moveB7v160006INS_17_ClassicAlgPolicyENS_11__move_loopIS1_EENS_14__move_trivialEPPNS_12basic_stringIcNS_11char_traitsIcEENS_9allocatorIcEEEESC_SC_EENS_4pairIT2_T4_EESE_T3_SF_, symObjAddr: 0x5E80, symBinAddr: 0x1000071C8, symSize: 0x54 }
  - { offsetInCU: 0xA3D4, offset: 0x13B5C, size: 0x8, addend: 0x0, symName: __ZNSt3__121__unwrap_and_dispatchB7v160006INS_10__overloadINS_11__move_loopINS_17_ClassicAlgPolicyEEENS_14__move_trivialEEEPPNS_12basic_stringIcNS_11char_traitsIcEENS_9allocatorIcEEEESE_SE_Li0EEENS_4pairIT0_T2_EESG_T1_SH_, symObjAddr: 0x5ED4, symBinAddr: 0x10000721C, symSize: 0xB4 }
  - { offsetInCU: 0xA463, offset: 0x13BEB, size: 0x8, addend: 0x0, symName: __ZNSt3__114__unwrap_rangeB7v160006IPPNS_12basic_stringIcNS_11char_traitsIcEENS_9allocatorIcEEEES8_EENS_4pairIT0_SA_EET_SC_, symObjAddr: 0x5F88, symBinAddr: 0x1000072D0, symSize: 0x60 }
  - { offsetInCU: 0xA5E0, offset: 0x13D68, size: 0x8, addend: 0x0, symName: __ZNSt3__113__unwrap_iterB7v160006IPPNS_12basic_stringIcNS_11char_traitsIcEENS_9allocatorIcEEEENS_18__unwrap_iter_implIS8_Lb1EEELi0EEEDTclsrT0_8__unwrapclsr3stdE7declvalIT_EEEESC_, symObjAddr: 0x6030, symBinAddr: 0x100007378, symSize: 0x24 }
  - { offsetInCU: 0xA625, offset: 0x13DAD, size: 0x8, addend: 0x0, symName: __ZNSt3__19make_pairB7v160006IPPNS_12basic_stringIcNS_11char_traitsIcEENS_9allocatorIcEEEES8_EENS_4pairINS_18__unwrap_ref_decayIT_E4typeENSA_IT0_E4typeEEEOSB_OSE_, symObjAddr: 0x6054, symBinAddr: 0x10000739C, symSize: 0x38 }
  - { offsetInCU: 0xA674, offset: 0x13DFC, size: 0x8, addend: 0x0, symName: __ZNSt3__114__rewrap_rangeB7v160006IPPNS_12basic_stringIcNS_11char_traitsIcEENS_9allocatorIcEEEES8_EET_S9_T0_, symObjAddr: 0x608C, symBinAddr: 0x1000073D4, symSize: 0x2C }
  - { offsetInCU: 0xA6C0, offset: 0x13E48, size: 0x8, addend: 0x0, symName: __ZNSt3__113__rewrap_iterB7v160006IPPNS_12basic_stringIcNS_11char_traitsIcEENS_9allocatorIcEEEES8_NS_18__unwrap_iter_implIS8_Lb1EEEEET_SB_T0_, symObjAddr: 0x60B8, symBinAddr: 0x100007400, symSize: 0x50 }
  - { offsetInCU: 0xA715, offset: 0x13E9D, size: 0x8, addend: 0x0, symName: __ZNSt3__119__copy_trivial_implB7v160006IPNS_12basic_stringIcNS_11char_traitsIcEENS_9allocatorIcEEEES7_EENS_4pairIPT_PT0_EESA_SA_SC_, symObjAddr: 0x6108, symBinAddr: 0x100007450, symSize: 0x84 }
  - { offsetInCU: 0xA77D, offset: 0x13F05, size: 0x8, addend: 0x0, symName: __ZNSt3__19make_pairB7v160006IRPPNS_12basic_stringIcNS_11char_traitsIcEENS_9allocatorIcEEEES8_EENS_4pairINS_18__unwrap_ref_decayIT_E4typeENSB_IT0_E4typeEEEOSC_OSF_, symObjAddr: 0x618C, symBinAddr: 0x1000074D4, symSize: 0x38 }
  - { offsetInCU: 0xA820, offset: 0x13FA8, size: 0x8, addend: 0x0, symName: __ZNSt3__18distanceB7v160006INS_13move_iteratorIPPNS_12basic_stringIcNS_11char_traitsIcEENS_9allocatorIcEEEEEEEENS_15iterator_traitsIT_E15difference_typeESC_SC_, symObjAddr: 0x62A8, symBinAddr: 0x1000075F0, symSize: 0x3C }
  - { offsetInCU: 0xA863, offset: 0x13FEB, size: 0x8, addend: 0x0, symName: __ZNSt3__110__distanceB7v160006INS_13move_iteratorIPPNS_12basic_stringIcNS_11char_traitsIcEENS_9allocatorIcEEEEEEEENS_15iterator_traitsIT_E15difference_typeESC_SC_NS_26random_access_iterator_tagE, symObjAddr: 0x63E0, symBinAddr: 0x100007728, symSize: 0x30 }
  - { offsetInCU: 0xA8B0, offset: 0x14038, size: 0x8, addend: 0x0, symName: __ZNSt3__1miB7v160006IPPNS_12basic_stringIcNS_11char_traitsIcEENS_9allocatorIcEEEES8_EENS_13move_iteratorIT_E15difference_typeERKSB_RKNS9_IT0_EE, symObjAddr: 0x6410, symBinAddr: 0x100007758, symSize: 0x48 }
  - { offsetInCU: 0xA8FF, offset: 0x14087, size: 0x8, addend: 0x0, symName: __ZNSt3__113move_backwardB7v160006IPPNS_12basic_stringIcNS_11char_traitsIcEENS_9allocatorIcEEEES8_EET0_T_SA_S9_, symObjAddr: 0x664C, symBinAddr: 0x100007994, symSize: 0x40 }
  - { offsetInCU: 0xA959, offset: 0x140E1, size: 0x8, addend: 0x0, symName: __ZNSt3__115__move_backwardB7v160006INS_17_ClassicAlgPolicyEPPNS_12basic_stringIcNS_11char_traitsIcEENS_9allocatorIcEEEES9_S9_EENS_4pairIT0_T2_EESB_T1_SC_, symObjAddr: 0x668C, symBinAddr: 0x1000079D4, symSize: 0x44 }
  - { offsetInCU: 0xA9C5, offset: 0x1414D, size: 0x8, addend: 0x0, symName: __ZNSt3__123__dispatch_copy_or_moveB7v160006INS_17_ClassicAlgPolicyENS_20__move_backward_loopIS1_EENS_23__move_backward_trivialEPPNS_12basic_stringIcNS_11char_traitsIcEENS_9allocatorIcEEEESC_SC_EENS_4pairIT2_T4_EESE_T3_SF_, symObjAddr: 0x66D0, symBinAddr: 0x100007A18, symSize: 0x54 }
  - { offsetInCU: 0xAA43, offset: 0x141CB, size: 0x8, addend: 0x0, symName: __ZNSt3__121__unwrap_and_dispatchB7v160006INS_10__overloadINS_20__move_backward_loopINS_17_ClassicAlgPolicyEEENS_23__move_backward_trivialEEEPPNS_12basic_stringIcNS_11char_traitsIcEENS_9allocatorIcEEEESE_SE_Li0EEENS_4pairIT0_T2_EESG_T1_SH_, symObjAddr: 0x6724, symBinAddr: 0x100007A6C, symSize: 0xB4 }
  - { offsetInCU: 0xAB56, offset: 0x142DE, size: 0x8, addend: 0x0, symName: __ZNSt3__128__copy_backward_trivial_implB7v160006IPNS_12basic_stringIcNS_11char_traitsIcEENS_9allocatorIcEEEES7_EENS_4pairIPT_PT0_EESA_SA_SC_, symObjAddr: 0x6820, symBinAddr: 0x100007B68, symSize: 0x94 }
  - { offsetInCU: 0xABBE, offset: 0x14346, size: 0x8, addend: 0x0, symName: __ZNSt3__19make_pairB7v160006IRPPNS_12basic_stringIcNS_11char_traitsIcEENS_9allocatorIcEEEES9_EENS_4pairINS_18__unwrap_ref_decayIT_E4typeENSB_IT0_E4typeEEEOSC_OSF_, symObjAddr: 0x68B4, symBinAddr: 0x100007BFC, symSize: 0x38 }
  - { offsetInCU: 0xAC0D, offset: 0x14395, size: 0x8, addend: 0x0, symName: __ZNSt3__13maxB7v160006ImNS_6__lessImmEEEERKT_S5_S5_T0_, symObjAddr: 0x68EC, symBinAddr: 0x100007C34, symSize: 0x54 }
  - { offsetInCU: 0xACA2, offset: 0x1442A, size: 0x8, addend: 0x0, symName: __ZNSt3__119__allocate_at_leastB7v160006INS_9allocatorIPNS_12basic_stringIcNS_11char_traitsIcEENS1_IcEEEEEEEENS_19__allocation_resultINS_16allocator_traitsIT_E7pointerEEERSB_m, symObjAddr: 0x6A84, symBinAddr: 0x100007DCC, symSize: 0x40 }
  - { offsetInCU: 0xACE5, offset: 0x1446D, size: 0x8, addend: 0x0, symName: __ZNSt3__18distanceB7v160006INS_16__deque_iteratorINS_12basic_stringIcNS_11char_traitsIcEENS_9allocatorIcEEEEPKS7_RS8_PKS9_lLl170EEEEENS_15iterator_traitsIT_E15difference_typeESF_SF_, symObjAddr: 0x7978, symBinAddr: 0x100008CC0, symSize: 0x4C }
  - { offsetInCU: 0xAD28, offset: 0x144B0, size: 0x8, addend: 0x0, symName: __ZNSt3__1neB7v160006ERKNS_5dequeINS_12basic_stringIcNS_11char_traitsIcEENS_9allocatorIcEEEENS4_IS6_EEE13__deque_rangeESB_, symObjAddr: 0x8084, symBinAddr: 0x1000093CC, symSize: 0x34 }
  - { offsetInCU: 0xAD65, offset: 0x144ED, size: 0x8, addend: 0x0, symName: __ZNSt3__112__to_addressB7v160006INS_12basic_stringIcNS_11char_traitsIcEENS_9allocatorIcEEEEEEPT_S8_, symObjAddr: 0x8170, symBinAddr: 0x1000094B8, symSize: 0x14 }
  - { offsetInCU: 0xAD9A, offset: 0x14522, size: 0x8, addend: 0x0, symName: __ZNSt3__110__distanceB7v160006INS_16__deque_iteratorINS_12basic_stringIcNS_11char_traitsIcEENS_9allocatorIcEEEEPKS7_RS8_PKS9_lLl170EEEEENS_15iterator_traitsIT_E15difference_typeESF_SF_NS_26random_access_iterator_tagE, symObjAddr: 0x829C, symBinAddr: 0x1000095E4, symSize: 0x38 }
  - { offsetInCU: 0xADE7, offset: 0x1456F, size: 0x8, addend: 0x0, symName: __ZNSt3__1miB7v160006ERKNS_16__deque_iteratorINS_12basic_stringIcNS_11char_traitsIcEENS_9allocatorIcEEEEPKS6_RS7_PKS8_lLl170EEESE_, symObjAddr: 0x82D4, symBinAddr: 0x10000961C, symSize: 0xB0 }
  - { offsetInCU: 0xAE24, offset: 0x145AC, size: 0x8, addend: 0x0, symName: __ZNSt3__1neB7v160006ERKNS_16__deque_iteratorINS_12basic_stringIcNS_11char_traitsIcEENS_9allocatorIcEEEEPKS6_RS7_PKS8_lLl170EEESE_, symObjAddr: 0x8384, symBinAddr: 0x1000096CC, symSize: 0x34 }
  - { offsetInCU: 0xAE61, offset: 0x145E9, size: 0x8, addend: 0x0, symName: __ZNSt3__1eqB7v160006ERKNS_16__deque_iteratorINS_12basic_stringIcNS_11char_traitsIcEENS_9allocatorIcEEEEPKS6_RS7_PKS8_lLl170EEESE_, symObjAddr: 0x83B8, symBinAddr: 0x100009700, symSize: 0x30 }
  - { offsetInCU: 0xAE9F, offset: 0x14627, size: 0x8, addend: 0x0, symName: __ZNSt3__13minB7v160006ImEERKT_S3_S3_, symObjAddr: 0x8428, symBinAddr: 0x100009770, symSize: 0x2C }
  - { offsetInCU: 0xAEE2, offset: 0x1466A, size: 0x8, addend: 0x0, symName: __ZNSt3__13minB7v160006ImNS_6__lessImmEEEERKT_S5_S5_T0_, symObjAddr: 0x86EC, symBinAddr: 0x100009A34, symSize: 0x54 }
  - { offsetInCU: 0xAF3C, offset: 0x146C4, size: 0x8, addend: 0x0, symName: __ZNSt3__1eqB7v160006ERKNS_5dequeINS_12basic_stringIcNS_11char_traitsIcEENS_9allocatorIcEEEENS4_IS6_EEE13__deque_rangeESB_, symObjAddr: 0x8894, symBinAddr: 0x100009BDC, symSize: 0x30 }
  - { offsetInCU: 0xAF79, offset: 0x14701, size: 0x8, addend: 0x0, symName: __ZNSt3__112__to_addressB7v160006IdEEPT_S2_, symObjAddr: 0x99C8, symBinAddr: 0x10000A488, symSize: 0x14 }
  - { offsetInCU: 0xB43A, offset: 0x14BC2, size: 0x8, addend: 0x0, symName: __ZNSt3__14swapB7v160006IPPdEEvRT_S4_, symObjAddr: 0xADA4, symBinAddr: 0x10000B864, symSize: 0x3C }
  - { offsetInCU: 0xB48B, offset: 0x14C13, size: 0x8, addend: 0x0, symName: __ZNSt3__14moveB7v160006IPPdS2_EET0_T_S4_S3_, symObjAddr: 0xAE88, symBinAddr: 0x10000B948, symSize: 0x40 }
  - { offsetInCU: 0xB4E5, offset: 0x14C6D, size: 0x8, addend: 0x0, symName: __ZNSt3__16__moveB7v160006INS_17_ClassicAlgPolicyEPPdS3_S3_EENS_4pairIT0_T2_EES5_T1_S6_, symObjAddr: 0xB034, symBinAddr: 0x10000BAF4, symSize: 0x44 }
  - { offsetInCU: 0xB551, offset: 0x14CD9, size: 0x8, addend: 0x0, symName: __ZNSt3__123__dispatch_copy_or_moveB7v160006INS_17_ClassicAlgPolicyENS_11__move_loopIS1_EENS_14__move_trivialEPPdS6_S6_EENS_4pairIT2_T4_EES8_T3_S9_, symObjAddr: 0xB078, symBinAddr: 0x10000BB38, symSize: 0x54 }
  - { offsetInCU: 0xB5CF, offset: 0x14D57, size: 0x8, addend: 0x0, symName: __ZNSt3__121__unwrap_and_dispatchB7v160006INS_10__overloadINS_11__move_loopINS_17_ClassicAlgPolicyEEENS_14__move_trivialEEEPPdS8_S8_Li0EEENS_4pairIT0_T2_EESA_T1_SB_, symObjAddr: 0xB0CC, symBinAddr: 0x10000BB8C, symSize: 0xB4 }
  - { offsetInCU: 0xB65E, offset: 0x14DE6, size: 0x8, addend: 0x0, symName: __ZNSt3__114__unwrap_rangeB7v160006IPPdS2_EENS_4pairIT0_S4_EET_S6_, symObjAddr: 0xB180, symBinAddr: 0x10000BC40, symSize: 0x60 }
  - { offsetInCU: 0xB757, offset: 0x14EDF, size: 0x8, addend: 0x0, symName: __ZNSt3__113__unwrap_iterB7v160006IPPdNS_18__unwrap_iter_implIS2_Lb1EEELi0EEEDTclsrT0_8__unwrapclsr3stdE7declvalIT_EEEES6_, symObjAddr: 0xB228, symBinAddr: 0x10000BCE8, symSize: 0x24 }
  - { offsetInCU: 0xB79C, offset: 0x14F24, size: 0x8, addend: 0x0, symName: __ZNSt3__19make_pairB7v160006IPPdS2_EENS_4pairINS_18__unwrap_ref_decayIT_E4typeENS4_IT0_E4typeEEEOS5_OS8_, symObjAddr: 0xB24C, symBinAddr: 0x10000BD0C, symSize: 0x38 }
  - { offsetInCU: 0xB7EB, offset: 0x14F73, size: 0x8, addend: 0x0, symName: __ZNSt3__114__rewrap_rangeB7v160006IPPdS2_EET_S3_T0_, symObjAddr: 0xB284, symBinAddr: 0x10000BD44, symSize: 0x2C }
  - { offsetInCU: 0xB837, offset: 0x14FBF, size: 0x8, addend: 0x0, symName: __ZNSt3__113__rewrap_iterB7v160006IPPdS2_NS_18__unwrap_iter_implIS2_Lb1EEEEET_S5_T0_, symObjAddr: 0xB2B0, symBinAddr: 0x10000BD70, symSize: 0x50 }
  - { offsetInCU: 0xB88C, offset: 0x15014, size: 0x8, addend: 0x0, symName: __ZNSt3__119__copy_trivial_implB7v160006IPdS1_EENS_4pairIPT_PT0_EES4_S4_S6_, symObjAddr: 0xB300, symBinAddr: 0x10000BDC0, symSize: 0x84 }
  - { offsetInCU: 0xB8F4, offset: 0x1507C, size: 0x8, addend: 0x0, symName: __ZNSt3__19make_pairB7v160006IRPPdS2_EENS_4pairINS_18__unwrap_ref_decayIT_E4typeENS5_IT0_E4typeEEEOS6_OS9_, symObjAddr: 0xB384, symBinAddr: 0x10000BE44, symSize: 0x38 }
  - { offsetInCU: 0xB997, offset: 0x1511F, size: 0x8, addend: 0x0, symName: __ZNSt3__18distanceB7v160006INS_13move_iteratorIPPdEEEENS_15iterator_traitsIT_E15difference_typeES6_S6_, symObjAddr: 0xB4A0, symBinAddr: 0x10000BF60, symSize: 0x3C }
  - { offsetInCU: 0xB9DA, offset: 0x15162, size: 0x8, addend: 0x0, symName: __ZNSt3__110__distanceB7v160006INS_13move_iteratorIPPdEEEENS_15iterator_traitsIT_E15difference_typeES6_S6_NS_26random_access_iterator_tagE, symObjAddr: 0xB5D8, symBinAddr: 0x10000C098, symSize: 0x30 }
  - { offsetInCU: 0xBA27, offset: 0x151AF, size: 0x8, addend: 0x0, symName: __ZNSt3__1miB7v160006IPPdS2_EENS_13move_iteratorIT_E15difference_typeERKS5_RKNS3_IT0_EE, symObjAddr: 0xB608, symBinAddr: 0x10000C0C8, symSize: 0x48 }
  - { offsetInCU: 0xBA76, offset: 0x151FE, size: 0x8, addend: 0x0, symName: __ZNSt3__113move_backwardB7v160006IPPdS2_EET0_T_S4_S3_, symObjAddr: 0xB838, symBinAddr: 0x10000C2F8, symSize: 0x40 }
  - { offsetInCU: 0xBAD0, offset: 0x15258, size: 0x8, addend: 0x0, symName: __ZNSt3__115__move_backwardB7v160006INS_17_ClassicAlgPolicyEPPdS3_S3_EENS_4pairIT0_T2_EES5_T1_S6_, symObjAddr: 0xB878, symBinAddr: 0x10000C338, symSize: 0x44 }
  - { offsetInCU: 0xBB3C, offset: 0x152C4, size: 0x8, addend: 0x0, symName: __ZNSt3__123__dispatch_copy_or_moveB7v160006INS_17_ClassicAlgPolicyENS_20__move_backward_loopIS1_EENS_23__move_backward_trivialEPPdS6_S6_EENS_4pairIT2_T4_EES8_T3_S9_, symObjAddr: 0xB8BC, symBinAddr: 0x10000C37C, symSize: 0x54 }
  - { offsetInCU: 0xBBBA, offset: 0x15342, size: 0x8, addend: 0x0, symName: __ZNSt3__121__unwrap_and_dispatchB7v160006INS_10__overloadINS_20__move_backward_loopINS_17_ClassicAlgPolicyEEENS_23__move_backward_trivialEEEPPdS8_S8_Li0EEENS_4pairIT0_T2_EESA_T1_SB_, symObjAddr: 0xB910, symBinAddr: 0x10000C3D0, symSize: 0xB4 }
  - { offsetInCU: 0xBC49, offset: 0x153D1, size: 0x8, addend: 0x0, symName: __ZNSt3__128__copy_backward_trivial_implB7v160006IPdS1_EENS_4pairIPT_PT0_EES4_S4_S6_, symObjAddr: 0xBA0C, symBinAddr: 0x10000C4CC, symSize: 0x94 }
  - { offsetInCU: 0xBCB1, offset: 0x15439, size: 0x8, addend: 0x0, symName: __ZNSt3__19make_pairB7v160006IRPPdS3_EENS_4pairINS_18__unwrap_ref_decayIT_E4typeENS5_IT0_E4typeEEEOS6_OS9_, symObjAddr: 0xBAA0, symBinAddr: 0x10000C560, symSize: 0x38 }
  - { offsetInCU: 0xBD00, offset: 0x15488, size: 0x8, addend: 0x0, symName: __ZNSt3__119__allocate_at_leastB7v160006INS_9allocatorIPdEEEENS_19__allocation_resultINS_16allocator_traitsIT_E7pointerEEERS6_m, symObjAddr: 0xBBE8, symBinAddr: 0x10000C6A8, symSize: 0x40 }
  - { offsetInCU: 0xBD43, offset: 0x154CB, size: 0x8, addend: 0x0, symName: __ZNSt3__14copyB7v160006INS_16__deque_iteratorINS_12basic_stringIcNS_11char_traitsIcEENS_9allocatorIcEEEEPKS7_RS8_PKS9_lLl170EEENS1_IS7_PS7_RS7_PSE_lLl170EEEEET0_T_SJ_SI_, symObjAddr: 0xC530, symBinAddr: 0x10000CFF0, symSize: 0x78 }
  - { offsetInCU: 0xBD9D, offset: 0x15525, size: 0x8, addend: 0x0, symName: __ZNSt3__16__copyB7v160006INS_17_ClassicAlgPolicyENS_16__deque_iteratorINS_12basic_stringIcNS_11char_traitsIcEENS_9allocatorIcEEEEPKS8_RS9_PKSA_lLl170EEESE_NS2_IS8_PS8_RS8_PSF_lLl170EEEEENS_4pairIT0_T2_EESK_T1_SL_, symObjAddr: 0xC86C, symBinAddr: 0x10000D32C, symSize: 0x64 }
  - { offsetInCU: 0xBE09, offset: 0x15591, size: 0x8, addend: 0x0, symName: __ZNSt3__123__dispatch_copy_or_moveB7v160006INS_17_ClassicAlgPolicyENS_11__copy_loopIS1_EENS_14__copy_trivialENS_16__deque_iteratorINS_12basic_stringIcNS_11char_traitsIcEENS_9allocatorIcEEEEPKSB_RSC_PKSD_lLl170EEESH_NS5_ISB_PSB_RSB_PSI_lLl170EEEEENS_4pairIT2_T4_EESN_T3_SO_, symObjAddr: 0xC8D0, symBinAddr: 0x10000D390, symSize: 0xB8 }
  - { offsetInCU: 0xBE87, offset: 0x1560F, size: 0x8, addend: 0x0, symName: __ZNSt3__121__unwrap_and_dispatchB7v160006INS_11__copy_loopINS_17_ClassicAlgPolicyEEENS_16__deque_iteratorINS_12basic_stringIcNS_11char_traitsIcEENS_9allocatorIcEEEEPKSA_RSB_PKSC_lLl170EEESG_NS4_ISA_PSA_RSA_PSH_lLl170EEELi0EEENS_4pairIT0_T2_EESM_T1_SN_, symObjAddr: 0xC988, symBinAddr: 0x10000D448, symSize: 0x12C }
  - { offsetInCU: 0xBF18, offset: 0x156A0, size: 0x8, addend: 0x0, symName: __ZNSt3__121__unwrap_and_dispatchB7v160006INS_10__overloadINS_11__copy_loopINS_17_ClassicAlgPolicyEEENS_14__copy_trivialEEENS_16__deque_iteratorINS_12basic_stringIcNS_11char_traitsIcEENS_9allocatorIcEEEEPKSD_RSE_PKSF_lLl170EEESJ_NS7_ISD_PSD_RSD_PSK_lLl170EEELi0EEENS_4pairIT0_T2_EESP_T1_SQ_, symObjAddr: 0xCAB4, symBinAddr: 0x10000D574, symSize: 0x12C }
  - { offsetInCU: 0xBFA9, offset: 0x15731, size: 0x8, addend: 0x0, symName: __ZNSt3__114__unwrap_rangeB7v160006INS_16__deque_iteratorINS_12basic_stringIcNS_11char_traitsIcEENS_9allocatorIcEEEEPKS7_RS8_PKS9_lLl170EEESD_EENS_4pairIT0_SF_EET_SH_, symObjAddr: 0xCBE0, symBinAddr: 0x10000D6A0, symSize: 0x84 }
  - { offsetInCU: 0xC177, offset: 0x158FF, size: 0x8, addend: 0x0, symName: __ZNSt3__113__unwrap_iterB7v160006INS_16__deque_iteratorINS_12basic_stringIcNS_11char_traitsIcEENS_9allocatorIcEEEEPS7_RS7_PS8_lLl170EEENS_18__unwrap_iter_implISB_Lb0EEELi0EEEDTclsrT0_8__unwrapclsr3stdE7declvalIT_EEEESF_, symObjAddr: 0xCE9C, symBinAddr: 0x10000D95C, symSize: 0x44 }
  - { offsetInCU: 0xC1BC, offset: 0x15944, size: 0x8, addend: 0x0, symName: __ZNSt3__19make_pairB7v160006INS_16__deque_iteratorINS_12basic_stringIcNS_11char_traitsIcEENS_9allocatorIcEEEEPKS7_RS8_PKS9_lLl170EEENS1_IS7_PS7_RS7_PSE_lLl170EEEEENS_4pairINS_18__unwrap_ref_decayIT_E4typeENSJ_IT0_E4typeEEEOSK_OSN_, symObjAddr: 0xCEE0, symBinAddr: 0x10000D9A0, symSize: 0x38 }
  - { offsetInCU: 0xC20B, offset: 0x15993, size: 0x8, addend: 0x0, symName: __ZNSt3__114__rewrap_rangeB7v160006INS_16__deque_iteratorINS_12basic_stringIcNS_11char_traitsIcEENS_9allocatorIcEEEEPKS7_RS8_PKS9_lLl170EEESD_EET_SE_T0_, symObjAddr: 0xCF18, symBinAddr: 0x10000D9D8, symSize: 0x5C }
  - { offsetInCU: 0xC257, offset: 0x159DF, size: 0x8, addend: 0x0, symName: __ZNSt3__113__rewrap_iterB7v160006INS_16__deque_iteratorINS_12basic_stringIcNS_11char_traitsIcEENS_9allocatorIcEEEEPS7_RS7_PS8_lLl170EEESB_NS_18__unwrap_iter_implISB_Lb0EEEEET_SE_T0_, symObjAddr: 0xCF74, symBinAddr: 0x10000DA34, symSize: 0x88 }
  - { offsetInCU: 0xC2AC, offset: 0x15A34, size: 0x8, addend: 0x0, symName: __ZNSt3__19make_pairB7v160006INS_16__deque_iteratorINS_12basic_stringIcNS_11char_traitsIcEENS_9allocatorIcEEEEPKS7_RS8_PKS9_lLl170EEESD_EENS_4pairINS_18__unwrap_ref_decayIT_E4typeENSF_IT0_E4typeEEEOSG_OSJ_, symObjAddr: 0xCFFC, symBinAddr: 0x10000DABC, symSize: 0x38 }
  - { offsetInCU: 0xC2FB, offset: 0x15A83, size: 0x8, addend: 0x0, symName: __ZNSt3__113__unwrap_iterB7v160006INS_16__deque_iteratorINS_12basic_stringIcNS_11char_traitsIcEENS_9allocatorIcEEEEPKS7_RS8_PKS9_lLl170EEENS_18__unwrap_iter_implISD_Lb0EEELi0EEEDTclsrT0_8__unwrapclsr3stdE7declvalIT_EEEESH_, symObjAddr: 0xD034, symBinAddr: 0x10000DAF4, symSize: 0x44 }
  - { offsetInCU: 0xC4E2, offset: 0x15C6A, size: 0x8, addend: 0x0, symName: __ZNSt3__16__copyB7v160006INS_17_ClassicAlgPolicyEPKNS_12basic_stringIcNS_11char_traitsIcEENS_9allocatorIcEEEES9_NS_16__deque_iteratorIS7_PS7_RS7_PSB_lLl170EEEEENS_4pairIT0_T2_EESG_T1_SH_, symObjAddr: 0xD124, symBinAddr: 0x10000DBE4, symSize: 0x44 }
  - { offsetInCU: 0xC54A, offset: 0x15CD2, size: 0x8, addend: 0x0, symName: __ZNSt3__19make_pairB7v160006IRNS_16__deque_iteratorINS_12basic_stringIcNS_11char_traitsIcEENS_9allocatorIcEEEEPKS7_RS8_PKS9_lLl170EEENS1_IS7_PS7_RS7_PSF_lLl170EEEEENS_4pairINS_18__unwrap_ref_decayIT_E4typeENSK_IT0_E4typeEEEOSL_OSO_, symObjAddr: 0xD180, symBinAddr: 0x10000DC40, symSize: 0x38 }
  - { offsetInCU: 0xC599, offset: 0x15D21, size: 0x8, addend: 0x0, symName: __ZNSt3__123__dispatch_copy_or_moveB7v160006INS_17_ClassicAlgPolicyENS_11__copy_loopIS1_EENS_14__copy_trivialEPKNS_12basic_stringIcNS_11char_traitsIcEENS_9allocatorIcEEEESC_NS_16__deque_iteratorISA_PSA_RSA_PSE_lLl170EEEEENS_4pairIT2_T4_EESJ_T3_SK_, symObjAddr: 0xD1EC, symBinAddr: 0x10000DCAC, symSize: 0x80 }
  - { offsetInCU: 0xC617, offset: 0x15D9F, size: 0x8, addend: 0x0, symName: __ZNSt3__121__unwrap_and_dispatchB7v160006INS_11__copy_loopINS_17_ClassicAlgPolicyEEEPKNS_12basic_stringIcNS_11char_traitsIcEENS_9allocatorIcEEEESB_NS_16__deque_iteratorIS9_PS9_RS9_PSD_lLl170EEELi0EEENS_4pairIT0_T2_EESI_T1_SJ_, symObjAddr: 0xD26C, symBinAddr: 0x10000DD2C, symSize: 0xF0 }
  - { offsetInCU: 0xC6A7, offset: 0x15E2F, size: 0x8, addend: 0x0, symName: __ZNSt3__121__unwrap_and_dispatchB7v160006INS_10__overloadINS_11__copy_loopINS_17_ClassicAlgPolicyEEENS_14__copy_trivialEEEPKNS_12basic_stringIcNS_11char_traitsIcEENS_9allocatorIcEEEESE_NS_16__deque_iteratorISC_PSC_RSC_PSG_lLl170EEELi0EEENS_4pairIT0_T2_EESL_T1_SM_, symObjAddr: 0xD35C, symBinAddr: 0x10000DE1C, symSize: 0xF0 }
  - { offsetInCU: 0xC737, offset: 0x15EBF, size: 0x8, addend: 0x0, symName: __ZNSt3__114__unwrap_rangeB7v160006IPKNS_12basic_stringIcNS_11char_traitsIcEENS_9allocatorIcEEEES8_EENS_4pairIT0_SA_EET_SC_, symObjAddr: 0xD44C, symBinAddr: 0x10000DF0C, symSize: 0x60 }
  - { offsetInCU: 0xC830, offset: 0x15FB8, size: 0x8, addend: 0x0, symName: __ZNSt3__19make_pairB7v160006IPKNS_12basic_stringIcNS_11char_traitsIcEENS_9allocatorIcEEEENS_16__deque_iteratorIS6_PS6_RS6_PSA_lLl170EEEEENS_4pairINS_18__unwrap_ref_decayIT_E4typeENSF_IT0_E4typeEEEOSG_OSJ_, symObjAddr: 0xD618, symBinAddr: 0x10000E0D8, symSize: 0x38 }
  - { offsetInCU: 0xC87F, offset: 0x16007, size: 0x8, addend: 0x0, symName: __ZNSt3__114__rewrap_rangeB7v160006IPKNS_12basic_stringIcNS_11char_traitsIcEENS_9allocatorIcEEEES8_EET_S9_T0_, symObjAddr: 0xD650, symBinAddr: 0x10000E110, symSize: 0x2C }
  - { offsetInCU: 0xC8CB, offset: 0x16053, size: 0x8, addend: 0x0, symName: __ZNSt3__19make_pairB7v160006IPKNS_12basic_stringIcNS_11char_traitsIcEENS_9allocatorIcEEEES8_EENS_4pairINS_18__unwrap_ref_decayIT_E4typeENSA_IT0_E4typeEEEOSB_OSE_, symObjAddr: 0xD67C, symBinAddr: 0x10000E13C, symSize: 0x38 }
  - { offsetInCU: 0xC91A, offset: 0x160A2, size: 0x8, addend: 0x0, symName: __ZNSt3__113__unwrap_iterB7v160006IPKNS_12basic_stringIcNS_11char_traitsIcEENS_9allocatorIcEEEENS_18__unwrap_iter_implIS8_Lb1EEELi0EEEDTclsrT0_8__unwrapclsr3stdE7declvalIT_EEEESC_, symObjAddr: 0xD6B4, symBinAddr: 0x10000E174, symSize: 0x24 }
  - { offsetInCU: 0xCA60, offset: 0x161E8, size: 0x8, addend: 0x0, symName: __ZNSt3__112__to_addressB7v160006IKNS_12basic_stringIcNS_11char_traitsIcEENS_9allocatorIcEEEEEEPT_S9_, symObjAddr: 0xD76C, symBinAddr: 0x10000E22C, symSize: 0x14 }
  - { offsetInCU: 0xCB41, offset: 0x162C9, size: 0x8, addend: 0x0, symName: __ZNSt3__13minB7v160006IlEERKT_S3_S3_, symObjAddr: 0xD7CC, symBinAddr: 0x10000E28C, symSize: 0x2C }
  - { offsetInCU: 0xCB84, offset: 0x1630C, size: 0x8, addend: 0x0, symName: __ZNSt3__16__copyB7v160006INS_17_ClassicAlgPolicyEPKNS_12basic_stringIcNS_11char_traitsIcEENS_9allocatorIcEEEES9_PS7_EENS_4pairIT0_T2_EESC_T1_SD_, symObjAddr: 0xD7F8, symBinAddr: 0x10000E2B8, symSize: 0x44 }
  - { offsetInCU: 0xCBEC, offset: 0x16374, size: 0x8, addend: 0x0, symName: __ZNSt3__13minB7v160006IlNS_6__lessIllEEEERKT_S5_S5_T0_, symObjAddr: 0xD8D8, symBinAddr: 0x10000E398, symSize: 0x54 }
  - { offsetInCU: 0xCC81, offset: 0x16409, size: 0x8, addend: 0x0, symName: __ZNSt3__123__dispatch_copy_or_moveB7v160006INS_17_ClassicAlgPolicyENS_11__copy_loopIS1_EENS_14__copy_trivialEPKNS_12basic_stringIcNS_11char_traitsIcEENS_9allocatorIcEEEESC_PSA_EENS_4pairIT2_T4_EESF_T3_SG_, symObjAddr: 0xD960, symBinAddr: 0x10000E420, symSize: 0x70 }
  - { offsetInCU: 0xCCFF, offset: 0x16487, size: 0x8, addend: 0x0, symName: __ZNSt3__121__unwrap_and_dispatchB7v160006INS_11__copy_loopINS_17_ClassicAlgPolicyEEEPKNS_12basic_stringIcNS_11char_traitsIcEENS_9allocatorIcEEEESB_PS9_Li0EEENS_4pairIT0_T2_EESE_T1_SF_, symObjAddr: 0xD9D0, symBinAddr: 0x10000E490, symSize: 0xB4 }
  - { offsetInCU: 0xCD8E, offset: 0x16516, size: 0x8, addend: 0x0, symName: __ZNSt3__121__unwrap_and_dispatchB7v160006INS_10__overloadINS_11__copy_loopINS_17_ClassicAlgPolicyEEENS_14__copy_trivialEEEPKNS_12basic_stringIcNS_11char_traitsIcEENS_9allocatorIcEEEESE_PSC_Li0EEENS_4pairIT0_T2_EESH_T1_SI_, symObjAddr: 0xDA84, symBinAddr: 0x10000E544, symSize: 0xB4 }
  - { offsetInCU: 0xCECA, offset: 0x16652, size: 0x8, addend: 0x0, symName: __ZNSt3__113__unwrap_iterB7v160006IPNS_12basic_stringIcNS_11char_traitsIcEENS_9allocatorIcEEEENS_18__unwrap_iter_implIS7_Lb1EEELi0EEEDTclsrT0_8__unwrapclsr3stdE7declvalIT_EEEESB_, symObjAddr: 0xDBC0, symBinAddr: 0x10000E680, symSize: 0x24 }
  - { offsetInCU: 0xCF0F, offset: 0x16697, size: 0x8, addend: 0x0, symName: __ZNSt3__19make_pairB7v160006IPKNS_12basic_stringIcNS_11char_traitsIcEENS_9allocatorIcEEEEPS6_EENS_4pairINS_18__unwrap_ref_decayIT_E4typeENSB_IT0_E4typeEEEOSC_OSF_, symObjAddr: 0xDBE4, symBinAddr: 0x10000E6A4, symSize: 0x38 }
  - { offsetInCU: 0xCF5E, offset: 0x166E6, size: 0x8, addend: 0x0, symName: __ZNSt3__113__rewrap_iterB7v160006IPNS_12basic_stringIcNS_11char_traitsIcEENS_9allocatorIcEEEES7_NS_18__unwrap_iter_implIS7_Lb1EEEEET_SA_T0_, symObjAddr: 0xDC1C, symBinAddr: 0x10000E6DC, symSize: 0x50 }
  - { offsetInCU: 0xD007, offset: 0x1678F, size: 0x8, addend: 0x0, symName: __ZNSt3__113__rewrap_iterB7v160006IPKNS_12basic_stringIcNS_11char_traitsIcEENS_9allocatorIcEEEES8_NS_18__unwrap_iter_implIS8_Lb1EEEEET_SB_T0_, symObjAddr: 0xDDC8, symBinAddr: 0x10000E888, symSize: 0x50 }
  - { offsetInCU: 0xD0A5, offset: 0x1682D, size: 0x8, addend: 0x0, symName: __ZNSt3__113__rewrap_iterB7v160006INS_16__deque_iteratorINS_12basic_stringIcNS_11char_traitsIcEENS_9allocatorIcEEEEPKS7_RS8_PKS9_lLl170EEESD_NS_18__unwrap_iter_implISD_Lb0EEEEET_SG_T0_, symObjAddr: 0xDF04, symBinAddr: 0x10000E9C4, symSize: 0x88 }
  - { offsetInCU: 0xD351, offset: 0x16AD9, size: 0x8, addend: 0x0, symName: __ZSt28__throw_bad_array_new_lengthB7v160006v, symObjAddr: 0x4320, symBinAddr: 0x10000572C, symSize: 0x34 }
  - { offsetInCU: 0xFB47, offset: 0x192CF, size: 0x8, addend: 0x0, symName: __ZN3RPN12isValidFieldERNSt3__112basic_stringIcNS0_11char_traitsIcEENS0_9allocatorIcEEEE, symObjAddr: 0x0, symBinAddr: 0x1000017AC, symSize: 0x2D8 }
  - { offsetInCU: 0xFBB6, offset: 0x1933E, size: 0x8, addend: 0x0, symName: __ZNSt3__112basic_stringIcNS_11char_traitsIcEENS_9allocatorIcEEEixB7v160006Em, symObjAddr: 0x2D8, symBinAddr: 0x100001A84, symSize: 0x30 }
  - { offsetInCU: 0xFBE9, offset: 0x19371, size: 0x8, addend: 0x0, symName: __ZNKSt3__112basic_stringIcNS_11char_traitsIcEENS_9allocatorIcEEE4sizeB7v160006Ev, symObjAddr: 0x3C8, symBinAddr: 0x100001B74, symSize: 0x54 }
  - { offsetInCU: 0xFC0D, offset: 0x19395, size: 0x8, addend: 0x0, symName: __ZN3RPN8tokenizeERNSt3__112basic_stringIcNS0_11char_traitsIcEENS0_9allocatorIcEEEE, symObjAddr: 0x41C, symBinAddr: 0x100001BC8, symSize: 0x288 }
  - { offsetInCU: 0xFD6E, offset: 0x194F6, size: 0x8, addend: 0x0, symName: __ZNSt3__119basic_istringstreamIcNS_11char_traitsIcEENS_9allocatorIcEEEC1B7v160006ERKNS_12basic_stringIcS2_S4_EEj, symObjAddr: 0x6A4, symBinAddr: 0x100001E50, symSize: 0x108 }
  - { offsetInCU: 0xFDB4, offset: 0x1953C, size: 0x8, addend: 0x0, symName: __ZNSt3__112basic_stringIcNS_11char_traitsIcEENS_9allocatorIcEEEC1B7v160006Ev, symObjAddr: 0x7AC, symBinAddr: 0x100001F58, symSize: 0x2C }
  - { offsetInCU: 0xFDDC, offset: 0x19564, size: 0x8, addend: 0x0, symName: __ZNKSt3__19basic_iosIcNS_11char_traitsIcEEEcvPvB7v160006Ev, symObjAddr: 0xA10, symBinAddr: 0x1000021BC, symSize: 0x4C }
  - { offsetInCU: 0xFE00, offset: 0x19588, size: 0x8, addend: 0x0, symName: __ZN11CustomStack4pushERNSt3__112basic_stringIcNS0_11char_traitsIcEENS0_9allocatorIcEEEE, symObjAddr: 0xA5C, symBinAddr: 0x100002208, symSize: 0x188 }
  - { offsetInCU: 0xFE5E, offset: 0x195E6, size: 0x8, addend: 0x0, symName: __ZNSt3__15stackINS_12basic_stringIcNS_11char_traitsIcEENS_9allocatorIcEEEENS_5dequeIS6_NS4_IS6_EEEEEC1B7v160006ERKSA_, symObjAddr: 0xBE4, symBinAddr: 0x100002390, symSize: 0x34 }
  - { offsetInCU: 0xFE94, offset: 0x1961C, size: 0x8, addend: 0x0, symName: __ZNKSt3__15stackINS_12basic_stringIcNS_11char_traitsIcEENS_9allocatorIcEEEENS_5dequeIS6_NS4_IS6_EEEEE5emptyB7v160006Ev, symObjAddr: 0xC18, symBinAddr: 0x1000023C4, symSize: 0x28 }
  - { offsetInCU: 0xFEB8, offset: 0x19640, size: 0x8, addend: 0x0, symName: __ZN11CustomStack10isOperatorERNSt3__112basic_stringIcNS0_11char_traitsIcEENS0_9allocatorIcEEEE, symObjAddr: 0xC40, symBinAddr: 0x1000023EC, symSize: 0xC0 }
  - { offsetInCU: 0xFEEA, offset: 0x19672, size: 0x8, addend: 0x0, symName: __ZNSt3__15stackINS_12basic_stringIcNS_11char_traitsIcEENS_9allocatorIcEEEENS_5dequeIS6_NS4_IS6_EEEEE3topB7v160006Ev, symObjAddr: 0xD00, symBinAddr: 0x1000024AC, symSize: 0x24 }
  - { offsetInCU: 0xFF0E, offset: 0x19696, size: 0x8, addend: 0x0, symName: __ZNSt3__15stackINS_12basic_stringIcNS_11char_traitsIcEENS_9allocatorIcEEEENS_5dequeIS6_NS4_IS6_EEEEE3popB7v160006Ev, symObjAddr: 0xD24, symBinAddr: 0x1000024D0, symSize: 0x24 }
  - { offsetInCU: 0xFF32, offset: 0x196BA, size: 0x8, addend: 0x0, symName: __ZNSt3__15stackINS_12basic_stringIcNS_11char_traitsIcEENS_9allocatorIcEEEENS_5dequeIS6_NS4_IS6_EEEEED1Ev, symObjAddr: 0xD48, symBinAddr: 0x1000024F4, symSize: 0x2C }
  - { offsetInCU: 0xFF62, offset: 0x196EA, size: 0x8, addend: 0x0, symName: __ZNSt3__119basic_istringstreamIcNS_11char_traitsIcEENS_9allocatorIcEEED1Ev, symObjAddr: 0xD80, symBinAddr: 0x100002520, symSize: 0x70 }
  - { offsetInCU: 0xFF8E, offset: 0x19716, size: 0x8, addend: 0x0, symName: __ZN3RPN9calculateEv, symObjAddr: 0xDF0, symBinAddr: 0x100002590, symSize: 0x5E8 }
  - { offsetInCU: 0x10078, offset: 0x19800, size: 0x8, addend: 0x0, symName: __ZNSt3__15stackIdNS_5dequeIdNS_9allocatorIdEEEEEC1B7v160006Ev, symObjAddr: 0x13D8, symBinAddr: 0x100002B78, symSize: 0x2C }
  - { offsetInCU: 0x100A0, offset: 0x19828, size: 0x8, addend: 0x0, symName: __ZNKSt3__15stackIdNS_5dequeIdNS_9allocatorIdEEEEE4sizeB7v160006Ev, symObjAddr: 0x1404, symBinAddr: 0x100002BA4, symSize: 0x24 }
  - { offsetInCU: 0x100C4, offset: 0x1984C, size: 0x8, addend: 0x0, symName: __ZNSt3__15stackIdNS_5dequeIdNS_9allocatorIdEEEEE3topB7v160006Ev, symObjAddr: 0x14F4, symBinAddr: 0x100002BC8, symSize: 0x24 }
  - { offsetInCU: 0x100E8, offset: 0x19870, size: 0x8, addend: 0x0, symName: __ZNSt3__15stackIdNS_5dequeIdNS_9allocatorIdEEEEE3popB7v160006Ev, symObjAddr: 0x1518, symBinAddr: 0x100002BEC, symSize: 0x24 }
  - { offsetInCU: 0x1010C, offset: 0x19894, size: 0x8, addend: 0x0, symName: __ZNSt3__15stackIdNS_5dequeIdNS_9allocatorIdEEEEE4pushB7v160006ERKd, symObjAddr: 0x153C, symBinAddr: 0x100002C10, symSize: 0x2C }
  - { offsetInCU: 0x1013E, offset: 0x198C6, size: 0x8, addend: 0x0, symName: __ZNSt3__15stackIdNS_5dequeIdNS_9allocatorIdEEEEED1Ev, symObjAddr: 0x1568, symBinAddr: 0x100002C3C, symSize: 0x2C }
  - { offsetInCU: 0x10169, offset: 0x198F1, size: 0x8, addend: 0x0, symName: __ZN3RPNC2ERNSt3__112basic_stringIcNS0_11char_traitsIcEENS0_9allocatorIcEEEE, symObjAddr: 0x1594, symBinAddr: 0x100002C68, symSize: 0x298 }
  - { offsetInCU: 0x101B7, offset: 0x1993F, size: 0x8, addend: 0x0, symName: __ZN11CustomStackC1Ev, symObjAddr: 0x182C, symBinAddr: 0x100002F00, symSize: 0x2C }
  - { offsetInCU: 0x101E2, offset: 0x1996A, size: 0x8, addend: 0x0, symName: __ZNSt3__15stackINS_12basic_stringIcNS_11char_traitsIcEENS_9allocatorIcEEEENS_5dequeIS6_NS4_IS6_EEEEEC1B7v160006Ev, symObjAddr: 0x18A4, symBinAddr: 0x100002F78, symSize: 0x2C }
  - { offsetInCU: 0x1020A, offset: 0x19992, size: 0x8, addend: 0x0, symName: __ZNSt3__15stackINS_12basic_stringIcNS_11char_traitsIcEENS_9allocatorIcEEEENS_5dequeIS6_NS4_IS6_EEEEE4pushB7v160006ERKS6_, symObjAddr: 0x18D0, symBinAddr: 0x100002FA4, symSize: 0x2C }
  - { offsetInCU: 0x1023C, offset: 0x199C4, size: 0x8, addend: 0x0, symName: __ZNSt3__15stackINS_12basic_stringIcNS_11char_traitsIcEENS_9allocatorIcEEEENS_5dequeIS6_NS4_IS6_EEEEEaSB7v160006ERKSA_, symObjAddr: 0x18FC, symBinAddr: 0x100002FD0, symSize: 0x34 }
  - { offsetInCU: 0x1026E, offset: 0x199F6, size: 0x8, addend: 0x0, symName: __ZN11CustomStackD1Ev, symObjAddr: 0x1930, symBinAddr: 0x100003004, symSize: 0x2C }
  - { offsetInCU: 0x10299, offset: 0x19A21, size: 0x8, addend: 0x0, symName: __ZN3RPNC1ERNSt3__112basic_stringIcNS0_11char_traitsIcEENS0_9allocatorIcEEEE, symObjAddr: 0x195C, symBinAddr: 0x100003030, symSize: 0x34 }
  - { offsetInCU: 0x102D2, offset: 0x19A5A, size: 0x8, addend: 0x0, symName: __ZN3RPND2Ev, symObjAddr: 0x1990, symBinAddr: 0x100003064, symSize: 0xBC }
  - { offsetInCU: 0x102FD, offset: 0x19A85, size: 0x8, addend: 0x0, symName: __ZN3RPND1Ev, symObjAddr: 0x1A4C, symBinAddr: 0x100003120, symSize: 0x2C }
  - { offsetInCU: 0x10332, offset: 0x19ABA, size: 0x8, addend: 0x0, symName: __ZNSt3__15stackINS_12basic_stringIcNS_11char_traitsIcEENS_9allocatorIcEEEENS_5dequeIS6_NS4_IS6_EEEEED2Ev, symObjAddr: 0x1C80, symBinAddr: 0x10000314C, symSize: 0x2C }
  - { offsetInCU: 0x1035D, offset: 0x19AE5, size: 0x8, addend: 0x0, symName: __ZNSt3__15dequeINS_12basic_stringIcNS_11char_traitsIcEENS_9allocatorIcEEEENS4_IS6_EEED1B7v160006Ev, symObjAddr: 0x1CAC, symBinAddr: 0x100003178, symSize: 0x2C }
  - { offsetInCU: 0x10385, offset: 0x19B0D, size: 0x8, addend: 0x0, symName: __ZNSt3__15dequeINS_12basic_stringIcNS_11char_traitsIcEENS_9allocatorIcEEEENS4_IS6_EEED2B7v160006Ev, symObjAddr: 0x1CD8, symBinAddr: 0x1000031A4, symSize: 0x9C }
  - { offsetInCU: 0x103DA, offset: 0x19B62, size: 0x8, addend: 0x0, symName: __ZNSt3__15dequeINS_12basic_stringIcNS_11char_traitsIcEENS_9allocatorIcEEEENS4_IS6_EEE5clearEv, symObjAddr: 0x1D74, symBinAddr: 0x100003240, symSize: 0x194 }
  - { offsetInCU: 0x1043C, offset: 0x19BC4, size: 0x8, addend: 0x0, symName: __ZNSt3__114__split_bufferIPNS_12basic_stringIcNS_11char_traitsIcEENS_9allocatorIcEEEENS4_IS7_EEE5beginB7v160006Ev, symObjAddr: 0x1F08, symBinAddr: 0x1000033D4, symSize: 0x18 }
  - { offsetInCU: 0x10460, offset: 0x19BE8, size: 0x8, addend: 0x0, symName: __ZNSt3__114__split_bufferIPNS_12basic_stringIcNS_11char_traitsIcEENS_9allocatorIcEEEENS4_IS7_EEE3endB7v160006Ev, symObjAddr: 0x1F20, symBinAddr: 0x1000033EC, symSize: 0x18 }
  - { offsetInCU: 0x10484, offset: 0x19C0C, size: 0x8, addend: 0x0, symName: __ZNSt3__116allocator_traitsINS_9allocatorINS_12basic_stringIcNS_11char_traitsIcEENS1_IcEEEEEEE10deallocateB7v160006ERS7_PS6_m, symObjAddr: 0x1F38, symBinAddr: 0x100003404, symSize: 0x34 }
  - { offsetInCU: 0x104C5, offset: 0x19C4D, size: 0x8, addend: 0x0, symName: __ZNSt3__15dequeINS_12basic_stringIcNS_11char_traitsIcEENS_9allocatorIcEEEENS4_IS6_EEE7__allocB7v160006Ev, symObjAddr: 0x1F6C, symBinAddr: 0x100003438, symSize: 0x28 }
  - { offsetInCU: 0x104E9, offset: 0x19C71, size: 0x8, addend: 0x0, symName: __ZNSt3__114__split_bufferIPNS_12basic_stringIcNS_11char_traitsIcEENS_9allocatorIcEEEENS4_IS7_EEED1Ev, symObjAddr: 0x1F94, symBinAddr: 0x100003460, symSize: 0x2C }
  - { offsetInCU: 0x10514, offset: 0x19C9C, size: 0x8, addend: 0x0, symName: __ZNSt3__15dequeINS_12basic_stringIcNS_11char_traitsIcEENS_9allocatorIcEEEENS4_IS6_EEE5beginB7v160006Ev, symObjAddr: 0x1FC0, symBinAddr: 0x10000348C, symSize: 0xD4 }
  - { offsetInCU: 0x10547, offset: 0x19CCF, size: 0x8, addend: 0x0, symName: __ZNSt3__15dequeINS_12basic_stringIcNS_11char_traitsIcEENS_9allocatorIcEEEENS4_IS6_EEE3endB7v160006Ev, symObjAddr: 0x2094, symBinAddr: 0x100003560, symSize: 0xC4 }
  - { offsetInCU: 0x10589, offset: 0x19D11, size: 0x8, addend: 0x0, symName: __ZNSt3__116allocator_traitsINS_9allocatorINS_12basic_stringIcNS_11char_traitsIcEENS1_IcEEEEEEE7destroyB7v160006IS6_vEEvRS7_PT_, symObjAddr: 0x218C, symBinAddr: 0x100003658, symSize: 0x2C }
  - { offsetInCU: 0x105C6, offset: 0x19D4E, size: 0x8, addend: 0x0, symName: __ZNKSt3__116__deque_iteratorINS_12basic_stringIcNS_11char_traitsIcEENS_9allocatorIcEEEEPS6_RS6_PS7_lLl170EEdeB7v160006Ev, symObjAddr: 0x21B8, symBinAddr: 0x100003684, symSize: 0x18 }
  - { offsetInCU: 0x105EA, offset: 0x19D72, size: 0x8, addend: 0x0, symName: __ZNSt3__116__deque_iteratorINS_12basic_stringIcNS_11char_traitsIcEENS_9allocatorIcEEEEPS6_RS6_PS7_lLl170EEppB7v160006Ev, symObjAddr: 0x21D0, symBinAddr: 0x10000369C, symSize: 0x70 }
  - { offsetInCU: 0x1060E, offset: 0x19D96, size: 0x8, addend: 0x0, symName: __ZNSt3__15dequeINS_12basic_stringIcNS_11char_traitsIcEENS_9allocatorIcEEEENS4_IS6_EEE6__sizeB7v160006Ev, symObjAddr: 0x2240, symBinAddr: 0x10000370C, symSize: 0x28 }
  - { offsetInCU: 0x10632, offset: 0x19DBA, size: 0x8, addend: 0x0, symName: __ZNKSt3__114__split_bufferIPNS_12basic_stringIcNS_11char_traitsIcEENS_9allocatorIcEEEENS4_IS7_EEE4sizeB7v160006Ev, symObjAddr: 0x2268, symBinAddr: 0x100003734, symSize: 0x28 }
  - { offsetInCU: 0x10656, offset: 0x19DDE, size: 0x8, addend: 0x0, symName: __ZNSt3__114__split_bufferIPNS_12basic_stringIcNS_11char_traitsIcEENS_9allocatorIcEEEENS4_IS7_EEE5frontB7v160006Ev, symObjAddr: 0x2290, symBinAddr: 0x10000375C, symSize: 0x18 }
  - { offsetInCU: 0x1067A, offset: 0x19E02, size: 0x8, addend: 0x0, symName: __ZNSt3__114__split_bufferIPNS_12basic_stringIcNS_11char_traitsIcEENS_9allocatorIcEEEENS4_IS7_EEE9pop_frontB7v160006Ev, symObjAddr: 0x22A8, symBinAddr: 0x100003774, symSize: 0x2C }
  - { offsetInCU: 0x1069E, offset: 0x19E26, size: 0x8, addend: 0x0, symName: __ZNKSt3__114__split_bufferIPNS_12basic_stringIcNS_11char_traitsIcEENS_9allocatorIcEEEENS4_IS7_EEE5emptyB7v160006Ev, symObjAddr: 0x22D4, symBinAddr: 0x1000037A0, symSize: 0x28 }
  - { offsetInCU: 0x106C2, offset: 0x19E4A, size: 0x8, addend: 0x0, symName: __ZNSt3__116__deque_iteratorINS_12basic_stringIcNS_11char_traitsIcEENS_9allocatorIcEEEEPS6_RS6_PS7_lLl170EEC1B7v160006ES9_S7_, symObjAddr: 0x22FC, symBinAddr: 0x1000037C8, symSize: 0x3C }
  - { offsetInCU: 0x10708, offset: 0x19E90, size: 0x8, addend: 0x0, symName: __ZNSt3__116__deque_iteratorINS_12basic_stringIcNS_11char_traitsIcEENS_9allocatorIcEEEEPS6_RS6_PS7_lLl170EEC2B7v160006ES9_S7_, symObjAddr: 0x2338, symBinAddr: 0x100003804, symSize: 0x2C }
  - { offsetInCU: 0x1074E, offset: 0x19ED6, size: 0x8, addend: 0x0, symName: __ZNKSt3__15dequeINS_12basic_stringIcNS_11char_traitsIcEENS_9allocatorIcEEEENS4_IS6_EEE4sizeB7v160006Ev, symObjAddr: 0x2364, symBinAddr: 0x100003830, symSize: 0x28 }
  - { offsetInCU: 0x10772, offset: 0x19EFA, size: 0x8, addend: 0x0, symName: __ZNKSt3__15dequeINS_12basic_stringIcNS_11char_traitsIcEENS_9allocatorIcEEEENS4_IS6_EEE6__sizeB7v160006Ev, symObjAddr: 0x238C, symBinAddr: 0x100003858, symSize: 0x28 }
  - { offsetInCU: 0x10796, offset: 0x19F1E, size: 0x8, addend: 0x0, symName: __ZNKSt3__117__compressed_pairImNS_9allocatorINS_12basic_stringIcNS_11char_traitsIcEENS1_IcEEEEEEE5firstB7v160006Ev, symObjAddr: 0x23B4, symBinAddr: 0x100003880, symSize: 0x24 }
  - { offsetInCU: 0x107BA, offset: 0x19F42, size: 0x8, addend: 0x0, symName: __ZNKSt3__122__compressed_pair_elemImLi0ELb0EE5__getB7v160006Ev, symObjAddr: 0x23D8, symBinAddr: 0x1000038A4, symSize: 0x14 }
  - { offsetInCU: 0x107DE, offset: 0x19F66, size: 0x8, addend: 0x0, symName: __ZNSt3__19allocatorINS_12basic_stringIcNS_11char_traitsIcEENS0_IcEEEEE7destroyB7v160006EPS5_, symObjAddr: 0x241C, symBinAddr: 0x1000038E8, symSize: 0x28 }
  - { offsetInCU: 0x10810, offset: 0x19F98, size: 0x8, addend: 0x0, symName: __ZNSt3__117__compressed_pairImNS_9allocatorINS_12basic_stringIcNS_11char_traitsIcEENS1_IcEEEEEEE5firstB7v160006Ev, symObjAddr: 0x2444, symBinAddr: 0x100003910, symSize: 0x24 }
  - { offsetInCU: 0x10834, offset: 0x19FBC, size: 0x8, addend: 0x0, symName: __ZNSt3__122__compressed_pair_elemImLi0ELb0EE5__getB7v160006Ev, symObjAddr: 0x2468, symBinAddr: 0x100003934, symSize: 0x14 }
  - { offsetInCU: 0x10858, offset: 0x19FE0, size: 0x8, addend: 0x0, symName: __ZNSt3__114__split_bufferIPNS_12basic_stringIcNS_11char_traitsIcEENS_9allocatorIcEEEENS4_IS7_EEE19__destruct_at_beginB7v160006EPS7_, symObjAddr: 0x247C, symBinAddr: 0x100003948, symSize: 0x2C }
  - { offsetInCU: 0x1088A, offset: 0x1A012, size: 0x8, addend: 0x0, symName: __ZNSt3__114__split_bufferIPNS_12basic_stringIcNS_11char_traitsIcEENS_9allocatorIcEEEENS4_IS7_EEE19__destruct_at_beginEPS7_NS_17integral_constantIbLb1EEE, symObjAddr: 0x24A8, symBinAddr: 0x100003974, symSize: 0x20 }
  - { offsetInCU: 0x108C8, offset: 0x1A050, size: 0x8, addend: 0x0, symName: __ZNSt3__19allocatorINS_12basic_stringIcNS_11char_traitsIcEENS0_IcEEEEE10deallocateB7v160006EPS5_m, symObjAddr: 0x24C8, symBinAddr: 0x100003994, symSize: 0x74 }
  - { offsetInCU: 0x10908, offset: 0x1A090, size: 0x8, addend: 0x0, symName: __ZNSt3__117__compressed_pairImNS_9allocatorINS_12basic_stringIcNS_11char_traitsIcEENS1_IcEEEEEEE6secondB7v160006Ev, symObjAddr: 0x25C4, symBinAddr: 0x100003A84, symSize: 0x24 }
  - { offsetInCU: 0x1092C, offset: 0x1A0B4, size: 0x8, addend: 0x0, symName: __ZNSt3__122__compressed_pair_elemINS_9allocatorINS_12basic_stringIcNS_11char_traitsIcEENS1_IcEEEEEELi1ELb1EE5__getB7v160006Ev, symObjAddr: 0x25E8, symBinAddr: 0x100003AA8, symSize: 0x14 }
  - { offsetInCU: 0x10950, offset: 0x1A0D8, size: 0x8, addend: 0x0, symName: __ZNSt3__114__split_bufferIPNS_12basic_stringIcNS_11char_traitsIcEENS_9allocatorIcEEEENS4_IS7_EEED2Ev, symObjAddr: 0x25FC, symBinAddr: 0x100003ABC, symSize: 0x80 }
  - { offsetInCU: 0x1097B, offset: 0x1A103, size: 0x8, addend: 0x0, symName: __ZNSt3__114__split_bufferIPNS_12basic_stringIcNS_11char_traitsIcEENS_9allocatorIcEEEENS4_IS7_EEE5clearB7v160006Ev, symObjAddr: 0x267C, symBinAddr: 0x100003B3C, symSize: 0x28 }
  - { offsetInCU: 0x1099F, offset: 0x1A127, size: 0x8, addend: 0x0, symName: __ZNSt3__116allocator_traitsINS_9allocatorIPNS_12basic_stringIcNS_11char_traitsIcEENS1_IcEEEEEEE10deallocateB7v160006ERS8_PS7_m, symObjAddr: 0x26A4, symBinAddr: 0x100003B64, symSize: 0x34 }
  - { offsetInCU: 0x109E0, offset: 0x1A168, size: 0x8, addend: 0x0, symName: __ZNSt3__114__split_bufferIPNS_12basic_stringIcNS_11char_traitsIcEENS_9allocatorIcEEEENS4_IS7_EEE7__allocB7v160006Ev, symObjAddr: 0x26D8, symBinAddr: 0x100003B98, symSize: 0x28 }
  - { offsetInCU: 0x10A04, offset: 0x1A18C, size: 0x8, addend: 0x0, symName: __ZNKSt3__114__split_bufferIPNS_12basic_stringIcNS_11char_traitsIcEENS_9allocatorIcEEEENS4_IS7_EEE8capacityB7v160006Ev, symObjAddr: 0x2700, symBinAddr: 0x100003BC0, symSize: 0x40 }
  - { offsetInCU: 0x10A28, offset: 0x1A1B0, size: 0x8, addend: 0x0, symName: __ZNSt3__114__split_bufferIPNS_12basic_stringIcNS_11char_traitsIcEENS_9allocatorIcEEEENS4_IS7_EEE17__destruct_at_endB7v160006EPS7_, symObjAddr: 0x2740, symBinAddr: 0x100003C00, symSize: 0x2C }
  - { offsetInCU: 0x10A5A, offset: 0x1A1E2, size: 0x8, addend: 0x0, symName: __ZNSt3__114__split_bufferIPNS_12basic_stringIcNS_11char_traitsIcEENS_9allocatorIcEEEENS4_IS7_EEE17__destruct_at_endB7v160006EPS7_NS_17integral_constantIbLb0EEE, symObjAddr: 0x276C, symBinAddr: 0x100003C2C, symSize: 0x94 }
  - { offsetInCU: 0x10A9D, offset: 0x1A225, size: 0x8, addend: 0x0, symName: __ZNSt3__116allocator_traitsINS_9allocatorIPNS_12basic_stringIcNS_11char_traitsIcEENS1_IcEEEEEEE7destroyB7v160006IS7_vEEvRS8_PT_, symObjAddr: 0x2800, symBinAddr: 0x100003CC0, symSize: 0x2C }
  - { offsetInCU: 0x10ADA, offset: 0x1A262, size: 0x8, addend: 0x0, symName: __ZNSt3__19allocatorIPNS_12basic_stringIcNS_11char_traitsIcEENS0_IcEEEEE7destroyB7v160006EPS6_, symObjAddr: 0x2840, symBinAddr: 0x100003D00, symSize: 0x14 }
  - { offsetInCU: 0x10B0C, offset: 0x1A294, size: 0x8, addend: 0x0, symName: __ZNSt3__19allocatorIPNS_12basic_stringIcNS_11char_traitsIcEENS0_IcEEEEE10deallocateB7v160006EPS6_m, symObjAddr: 0x2854, symBinAddr: 0x100003D14, symSize: 0x70 }
  - { offsetInCU: 0x10B4C, offset: 0x1A2D4, size: 0x8, addend: 0x0, symName: __ZNSt3__117__compressed_pairIPPNS_12basic_stringIcNS_11char_traitsIcEENS_9allocatorIcEEEENS4_IS7_EEE6secondB7v160006Ev, symObjAddr: 0x28C4, symBinAddr: 0x100003D84, symSize: 0x24 }
  - { offsetInCU: 0x10B70, offset: 0x1A2F8, size: 0x8, addend: 0x0, symName: __ZNSt3__122__compressed_pair_elemINS_9allocatorIPNS_12basic_stringIcNS_11char_traitsIcEENS1_IcEEEEEELi1ELb1EE5__getB7v160006Ev, symObjAddr: 0x28E8, symBinAddr: 0x100003DA8, symSize: 0x14 }
  - { offsetInCU: 0x10B94, offset: 0x1A31C, size: 0x8, addend: 0x0, symName: __ZNKSt3__114__split_bufferIPNS_12basic_stringIcNS_11char_traitsIcEENS_9allocatorIcEEEENS4_IS7_EEE9__end_capB7v160006Ev, symObjAddr: 0x28FC, symBinAddr: 0x100003DBC, symSize: 0x28 }
  - { offsetInCU: 0x10BB8, offset: 0x1A340, size: 0x8, addend: 0x0, symName: __ZNKSt3__117__compressed_pairIPPNS_12basic_stringIcNS_11char_traitsIcEENS_9allocatorIcEEEENS4_IS7_EEE5firstB7v160006Ev, symObjAddr: 0x2924, symBinAddr: 0x100003DE4, symSize: 0x24 }
  - { offsetInCU: 0x10BDC, offset: 0x1A364, size: 0x8, addend: 0x0, symName: __ZNKSt3__122__compressed_pair_elemIPPNS_12basic_stringIcNS_11char_traitsIcEENS_9allocatorIcEEEELi0ELb0EE5__getB7v160006Ev, symObjAddr: 0x2948, symBinAddr: 0x100003E08, symSize: 0x14 }
  - { offsetInCU: 0x10C00, offset: 0x1A388, size: 0x8, addend: 0x0, symName: __ZNSt3__119basic_istringstreamIcNS_11char_traitsIcEENS_9allocatorIcEEED2Ev, symObjAddr: 0x295C, symBinAddr: 0x100003E1C, symSize: 0x9C }
  - { offsetInCU: 0x10C38, offset: 0x1A3C0, size: 0x8, addend: 0x0, symName: __ZTv0_n24_NSt3__119basic_istringstreamIcNS_11char_traitsIcEENS_9allocatorIcEEED1Ev, symObjAddr: 0x29F8, symBinAddr: 0x100003EB8, symSize: 0x28 }
  - { offsetInCU: 0x10C54, offset: 0x1A3DC, size: 0x8, addend: 0x0, symName: __ZNSt3__115basic_stringbufIcNS_11char_traitsIcEENS_9allocatorIcEEED1Ev, symObjAddr: 0x2A20, symBinAddr: 0x100003EE0, symSize: 0x2C }
  - { offsetInCU: 0x10C80, offset: 0x1A408, size: 0x8, addend: 0x0, symName: __ZNSt3__115basic_stringbufIcNS_11char_traitsIcEENS_9allocatorIcEEED2Ev, symObjAddr: 0x2A4C, symBinAddr: 0x100003F0C, symSize: 0x78 }
  - { offsetInCU: 0x10CAC, offset: 0x1A434, size: 0x8, addend: 0x0, symName: __ZNSt3__15stackIdNS_5dequeIdNS_9allocatorIdEEEEED2Ev, symObjAddr: 0x2AC4, symBinAddr: 0x100003F84, symSize: 0x2C }
  - { offsetInCU: 0x10CD7, offset: 0x1A45F, size: 0x8, addend: 0x0, symName: __ZNSt3__15dequeIdNS_9allocatorIdEEED1B7v160006Ev, symObjAddr: 0x2AF0, symBinAddr: 0x100003FB0, symSize: 0x2C }
  - { offsetInCU: 0x10CFF, offset: 0x1A487, size: 0x8, addend: 0x0, symName: __ZNSt3__15dequeIdNS_9allocatorIdEEED2B7v160006Ev, symObjAddr: 0x2B1C, symBinAddr: 0x100003FDC, symSize: 0x9C }
  - { offsetInCU: 0x10D54, offset: 0x1A4DC, size: 0x8, addend: 0x0, symName: __ZNSt3__15dequeIdNS_9allocatorIdEEE5clearEv, symObjAddr: 0x2BB8, symBinAddr: 0x100004078, symSize: 0x194 }
  - { offsetInCU: 0x10DB6, offset: 0x1A53E, size: 0x8, addend: 0x0, symName: __ZNSt3__114__split_bufferIPdNS_9allocatorIS1_EEE5beginB7v160006Ev, symObjAddr: 0x2D4C, symBinAddr: 0x10000420C, symSize: 0x18 }
  - { offsetInCU: 0x10DDA, offset: 0x1A562, size: 0x8, addend: 0x0, symName: __ZNSt3__114__split_bufferIPdNS_9allocatorIS1_EEE3endB7v160006Ev, symObjAddr: 0x2D64, symBinAddr: 0x100004224, symSize: 0x18 }
  - { offsetInCU: 0x10DFE, offset: 0x1A586, size: 0x8, addend: 0x0, symName: __ZNSt3__116allocator_traitsINS_9allocatorIdEEE10deallocateB7v160006ERS2_Pdm, symObjAddr: 0x2D7C, symBinAddr: 0x10000423C, symSize: 0x34 }
  - { offsetInCU: 0x10E3F, offset: 0x1A5C7, size: 0x8, addend: 0x0, symName: __ZNSt3__15dequeIdNS_9allocatorIdEEE7__allocB7v160006Ev, symObjAddr: 0x2DB0, symBinAddr: 0x100004270, symSize: 0x28 }
  - { offsetInCU: 0x10E63, offset: 0x1A5EB, size: 0x8, addend: 0x0, symName: __ZNSt3__114__split_bufferIPdNS_9allocatorIS1_EEED1Ev, symObjAddr: 0x2DD8, symBinAddr: 0x100004298, symSize: 0x2C }
  - { offsetInCU: 0x10E8E, offset: 0x1A616, size: 0x8, addend: 0x0, symName: __ZNSt3__15dequeIdNS_9allocatorIdEEE5beginB7v160006Ev, symObjAddr: 0x2E04, symBinAddr: 0x1000042C4, symSize: 0xCC }
  - { offsetInCU: 0x10EC1, offset: 0x1A649, size: 0x8, addend: 0x0, symName: __ZNSt3__15dequeIdNS_9allocatorIdEEE3endB7v160006Ev, symObjAddr: 0x2ED0, symBinAddr: 0x100004390, symSize: 0xBC }
  - { offsetInCU: 0x10F03, offset: 0x1A68B, size: 0x8, addend: 0x0, symName: __ZNSt3__116allocator_traitsINS_9allocatorIdEEE7destroyB7v160006IdvEEvRS2_PT_, symObjAddr: 0x2FC0, symBinAddr: 0x100004480, symSize: 0x2C }
  - { offsetInCU: 0x10F40, offset: 0x1A6C8, size: 0x8, addend: 0x0, symName: __ZNKSt3__116__deque_iteratorIdPdRdPS1_lLl512EEdeB7v160006Ev, symObjAddr: 0x2FEC, symBinAddr: 0x1000044AC, symSize: 0x18 }
  - { offsetInCU: 0x10F64, offset: 0x1A6EC, size: 0x8, addend: 0x0, symName: __ZNSt3__116__deque_iteratorIdPdRdPS1_lLl512EEppB7v160006Ev, symObjAddr: 0x3004, symBinAddr: 0x1000044C4, symSize: 0x70 }
  - { offsetInCU: 0x10F88, offset: 0x1A710, size: 0x8, addend: 0x0, symName: __ZNSt3__15dequeIdNS_9allocatorIdEEE6__sizeB7v160006Ev, symObjAddr: 0x3074, symBinAddr: 0x100004534, symSize: 0x28 }
  - { offsetInCU: 0x10FAC, offset: 0x1A734, size: 0x8, addend: 0x0, symName: __ZNKSt3__114__split_bufferIPdNS_9allocatorIS1_EEE4sizeB7v160006Ev, symObjAddr: 0x309C, symBinAddr: 0x10000455C, symSize: 0x28 }
  - { offsetInCU: 0x10FD0, offset: 0x1A758, size: 0x8, addend: 0x0, symName: __ZNSt3__114__split_bufferIPdNS_9allocatorIS1_EEE5frontB7v160006Ev, symObjAddr: 0x30C4, symBinAddr: 0x100004584, symSize: 0x18 }
  - { offsetInCU: 0x10FF4, offset: 0x1A77C, size: 0x8, addend: 0x0, symName: __ZNSt3__114__split_bufferIPdNS_9allocatorIS1_EEE9pop_frontB7v160006Ev, symObjAddr: 0x30DC, symBinAddr: 0x10000459C, symSize: 0x2C }
  - { offsetInCU: 0x11018, offset: 0x1A7A0, size: 0x8, addend: 0x0, symName: __ZNKSt3__114__split_bufferIPdNS_9allocatorIS1_EEE5emptyB7v160006Ev, symObjAddr: 0x3108, symBinAddr: 0x1000045C8, symSize: 0x28 }
  - { offsetInCU: 0x1103C, offset: 0x1A7C4, size: 0x8, addend: 0x0, symName: __ZNSt3__116__deque_iteratorIdPdRdPS1_lLl512EEC1B7v160006ES3_S1_, symObjAddr: 0x3130, symBinAddr: 0x1000045F0, symSize: 0x3C }
  - { offsetInCU: 0x11082, offset: 0x1A80A, size: 0x8, addend: 0x0, symName: __ZNSt3__116__deque_iteratorIdPdRdPS1_lLl512EEC2B7v160006ES3_S1_, symObjAddr: 0x316C, symBinAddr: 0x10000462C, symSize: 0x2C }
  - { offsetInCU: 0x110C8, offset: 0x1A850, size: 0x8, addend: 0x0, symName: __ZNKSt3__15dequeIdNS_9allocatorIdEEE4sizeB7v160006Ev, symObjAddr: 0x3198, symBinAddr: 0x100004658, symSize: 0x28 }
  - { offsetInCU: 0x110EC, offset: 0x1A874, size: 0x8, addend: 0x0, symName: __ZNKSt3__15dequeIdNS_9allocatorIdEEE6__sizeB7v160006Ev, symObjAddr: 0x31C0, symBinAddr: 0x100004680, symSize: 0x28 }
  - { offsetInCU: 0x11110, offset: 0x1A898, size: 0x8, addend: 0x0, symName: __ZNKSt3__117__compressed_pairImNS_9allocatorIdEEE5firstB7v160006Ev, symObjAddr: 0x31E8, symBinAddr: 0x1000046A8, symSize: 0x24 }
  - { offsetInCU: 0x11134, offset: 0x1A8BC, size: 0x8, addend: 0x0, symName: __ZNSt3__19allocatorIdE7destroyB7v160006EPd, symObjAddr: 0x323C, symBinAddr: 0x1000046FC, symSize: 0x14 }
  - { offsetInCU: 0x11166, offset: 0x1A8EE, size: 0x8, addend: 0x0, symName: __ZNSt3__117__compressed_pairImNS_9allocatorIdEEE5firstB7v160006Ev, symObjAddr: 0x3250, symBinAddr: 0x100004710, symSize: 0x24 }
  - { offsetInCU: 0x1118A, offset: 0x1A912, size: 0x8, addend: 0x0, symName: __ZNSt3__114__split_bufferIPdNS_9allocatorIS1_EEE19__destruct_at_beginB7v160006EPS1_, symObjAddr: 0x3274, symBinAddr: 0x100004734, symSize: 0x2C }
  - { offsetInCU: 0x111BC, offset: 0x1A944, size: 0x8, addend: 0x0, symName: __ZNSt3__114__split_bufferIPdNS_9allocatorIS1_EEE19__destruct_at_beginEPS1_NS_17integral_constantIbLb1EEE, symObjAddr: 0x32A0, symBinAddr: 0x100004760, symSize: 0x20 }
  - { offsetInCU: 0x111FA, offset: 0x1A982, size: 0x8, addend: 0x0, symName: __ZNSt3__19allocatorIdE10deallocateB7v160006EPdm, symObjAddr: 0x32C0, symBinAddr: 0x100004780, symSize: 0x70 }
  - { offsetInCU: 0x1123A, offset: 0x1A9C2, size: 0x8, addend: 0x0, symName: __ZNSt3__117__compressed_pairImNS_9allocatorIdEEE6secondB7v160006Ev, symObjAddr: 0x3330, symBinAddr: 0x1000047F0, symSize: 0x24 }
  - { offsetInCU: 0x1125E, offset: 0x1A9E6, size: 0x8, addend: 0x0, symName: __ZNSt3__122__compressed_pair_elemINS_9allocatorIdEELi1ELb1EE5__getB7v160006Ev, symObjAddr: 0x3354, symBinAddr: 0x100004814, symSize: 0x14 }
  - { offsetInCU: 0x11282, offset: 0x1AA0A, size: 0x8, addend: 0x0, symName: __ZNSt3__114__split_bufferIPdNS_9allocatorIS1_EEED2Ev, symObjAddr: 0x3368, symBinAddr: 0x100004828, symSize: 0x80 }
  - { offsetInCU: 0x112AD, offset: 0x1AA35, size: 0x8, addend: 0x0, symName: __ZNSt3__114__split_bufferIPdNS_9allocatorIS1_EEE5clearB7v160006Ev, symObjAddr: 0x33E8, symBinAddr: 0x1000048A8, symSize: 0x28 }
  - { offsetInCU: 0x112D1, offset: 0x1AA59, size: 0x8, addend: 0x0, symName: __ZNSt3__116allocator_traitsINS_9allocatorIPdEEE10deallocateB7v160006ERS3_PS2_m, symObjAddr: 0x3410, symBinAddr: 0x1000048D0, symSize: 0x34 }
  - { offsetInCU: 0x11312, offset: 0x1AA9A, size: 0x8, addend: 0x0, symName: __ZNSt3__114__split_bufferIPdNS_9allocatorIS1_EEE7__allocB7v160006Ev, symObjAddr: 0x3444, symBinAddr: 0x100004904, symSize: 0x28 }
  - { offsetInCU: 0x11336, offset: 0x1AABE, size: 0x8, addend: 0x0, symName: __ZNKSt3__114__split_bufferIPdNS_9allocatorIS1_EEE8capacityB7v160006Ev, symObjAddr: 0x346C, symBinAddr: 0x10000492C, symSize: 0x40 }
  - { offsetInCU: 0x1135A, offset: 0x1AAE2, size: 0x8, addend: 0x0, symName: __ZNSt3__114__split_bufferIPdNS_9allocatorIS1_EEE17__destruct_at_endB7v160006EPS1_, symObjAddr: 0x34AC, symBinAddr: 0x10000496C, symSize: 0x2C }
  - { offsetInCU: 0x1138C, offset: 0x1AB14, size: 0x8, addend: 0x0, symName: __ZNSt3__114__split_bufferIPdNS_9allocatorIS1_EEE17__destruct_at_endB7v160006EPS1_NS_17integral_constantIbLb0EEE, symObjAddr: 0x34D8, symBinAddr: 0x100004998, symSize: 0x94 }
  - { offsetInCU: 0x113CA, offset: 0x1AB52, size: 0x8, addend: 0x0, symName: __ZNSt3__116allocator_traitsINS_9allocatorIPdEEE7destroyB7v160006IS2_vEEvRS3_PT_, symObjAddr: 0x356C, symBinAddr: 0x100004A2C, symSize: 0x2C }
  - { offsetInCU: 0x11407, offset: 0x1AB8F, size: 0x8, addend: 0x0, symName: __ZNSt3__19allocatorIPdE7destroyB7v160006EPS1_, symObjAddr: 0x35AC, symBinAddr: 0x100004A6C, symSize: 0x14 }
  - { offsetInCU: 0x11439, offset: 0x1ABC1, size: 0x8, addend: 0x0, symName: __ZNSt3__19allocatorIPdE10deallocateB7v160006EPS1_m, symObjAddr: 0x35C0, symBinAddr: 0x100004A80, symSize: 0x70 }
  - { offsetInCU: 0x11479, offset: 0x1AC01, size: 0x8, addend: 0x0, symName: __ZNSt3__117__compressed_pairIPPdNS_9allocatorIS1_EEE6secondB7v160006Ev, symObjAddr: 0x3630, symBinAddr: 0x100004AF0, symSize: 0x24 }
  - { offsetInCU: 0x1149D, offset: 0x1AC25, size: 0x8, addend: 0x0, symName: __ZNSt3__122__compressed_pair_elemINS_9allocatorIPdEELi1ELb1EE5__getB7v160006Ev, symObjAddr: 0x3654, symBinAddr: 0x100004B14, symSize: 0x14 }
  - { offsetInCU: 0x114C1, offset: 0x1AC49, size: 0x8, addend: 0x0, symName: __ZNKSt3__114__split_bufferIPdNS_9allocatorIS1_EEE9__end_capB7v160006Ev, symObjAddr: 0x3668, symBinAddr: 0x100004B28, symSize: 0x28 }
  - { offsetInCU: 0x114E5, offset: 0x1AC6D, size: 0x8, addend: 0x0, symName: __ZNKSt3__117__compressed_pairIPPdNS_9allocatorIS1_EEE5firstB7v160006Ev, symObjAddr: 0x3690, symBinAddr: 0x100004B50, symSize: 0x24 }
  - { offsetInCU: 0x11509, offset: 0x1AC91, size: 0x8, addend: 0x0, symName: __ZNKSt3__122__compressed_pair_elemIPPdLi0ELb0EE5__getB7v160006Ev, symObjAddr: 0x36B4, symBinAddr: 0x100004B74, symSize: 0x14 }
  - { offsetInCU: 0x1152D, offset: 0x1ACB5, size: 0x8, addend: 0x0, symName: __ZN11CustomStackC2Ev, symObjAddr: 0x36C8, symBinAddr: 0x100004B88, symSize: 0x2C }
  - { offsetInCU: 0x11558, offset: 0x1ACE0, size: 0x8, addend: 0x0, symName: __ZN11CustomStackD2Ev, symObjAddr: 0x36F4, symBinAddr: 0x100004BB4, symSize: 0x2C }
  - { offsetInCU: 0x11583, offset: 0x1AD0B, size: 0x8, addend: 0x0, symName: __ZNSt3__112basic_stringIcNS_11char_traitsIcEENS_9allocatorIcEEE13__get_pointerB7v160006Ev, symObjAddr: 0x3720, symBinAddr: 0x100004BE0, symSize: 0x54 }
  - { offsetInCU: 0x115A7, offset: 0x1AD2F, size: 0x8, addend: 0x0, symName: __ZNSt3__112basic_stringIcNS_11char_traitsIcEENS_9allocatorIcEEE18__get_long_pointerB7v160006Ev, symObjAddr: 0x37E8, symBinAddr: 0x100004C34, symSize: 0x28 }
  - { offsetInCU: 0x115CB, offset: 0x1AD53, size: 0x8, addend: 0x0, symName: __ZNSt3__112basic_stringIcNS_11char_traitsIcEENS_9allocatorIcEEE19__get_short_pointerB7v160006Ev, symObjAddr: 0x3810, symBinAddr: 0x100004C5C, symSize: 0x28 }
  - { offsetInCU: 0x115EF, offset: 0x1AD77, size: 0x8, addend: 0x0, symName: __ZNSt3__117__compressed_pairINS_12basic_stringIcNS_11char_traitsIcEENS_9allocatorIcEEE5__repES5_E5firstB7v160006Ev, symObjAddr: 0x3870, symBinAddr: 0x100004C84, symSize: 0x24 }
  - { offsetInCU: 0x11613, offset: 0x1AD9B, size: 0x8, addend: 0x0, symName: __ZNSt3__122__compressed_pair_elemINS_12basic_stringIcNS_11char_traitsIcEENS_9allocatorIcEEE5__repELi0ELb0EE5__getB7v160006Ev, symObjAddr: 0x3894, symBinAddr: 0x100004CA8, symSize: 0x14 }
  - { offsetInCU: 0x11637, offset: 0x1ADBF, size: 0x8, addend: 0x0, symName: __ZNSt3__114pointer_traitsIPcE10pointer_toB7v160006ERc, symObjAddr: 0x38A8, symBinAddr: 0x100004CBC, symSize: 0x14 }
  - { offsetInCU: 0x11659, offset: 0x1ADE1, size: 0x8, addend: 0x0, symName: __ZNSt3__15stackINS_12basic_stringIcNS_11char_traitsIcEENS_9allocatorIcEEEENS_5dequeIS6_NS4_IS6_EEEEEC2B7v160006Ev, symObjAddr: 0x38BC, symBinAddr: 0x100004CD0, symSize: 0x2C }
  - { offsetInCU: 0x11681, offset: 0x1AE09, size: 0x8, addend: 0x0, symName: __ZNSt3__15dequeINS_12basic_stringIcNS_11char_traitsIcEENS_9allocatorIcEEEENS4_IS6_EEEC1B7v160006Ev, symObjAddr: 0x38E8, symBinAddr: 0x100004CFC, symSize: 0x2C }
  - { offsetInCU: 0x116A9, offset: 0x1AE31, size: 0x8, addend: 0x0, symName: __ZNSt3__15dequeINS_12basic_stringIcNS_11char_traitsIcEENS_9allocatorIcEEEENS4_IS6_EEEC2B7v160006Ev, symObjAddr: 0x3914, symBinAddr: 0x100004D28, symSize: 0x78 }
  - { offsetInCU: 0x116D1, offset: 0x1AE59, size: 0x8, addend: 0x0, symName: __ZNSt3__114__split_bufferIPNS_12basic_stringIcNS_11char_traitsIcEENS_9allocatorIcEEEENS4_IS7_EEEC1Ev, symObjAddr: 0x398C, symBinAddr: 0x100004DA0, symSize: 0x2C }
  - { offsetInCU: 0x11701, offset: 0x1AE89, size: 0x8, addend: 0x0, symName: __ZNSt3__117__compressed_pairImNS_9allocatorINS_12basic_stringIcNS_11char_traitsIcEENS1_IcEEEEEEEC1B7v160006IiNS_18__default_init_tagEEEOT_OT0_, symObjAddr: 0x39B8, symBinAddr: 0x100004DCC, symSize: 0x3C }
  - { offsetInCU: 0x11757, offset: 0x1AEDF, size: 0x8, addend: 0x0, symName: __ZNSt3__114__split_bufferIPNS_12basic_stringIcNS_11char_traitsIcEENS_9allocatorIcEEEENS4_IS7_EEEC2Ev, symObjAddr: 0x39F4, symBinAddr: 0x100004E08, symSize: 0x48 }
  - { offsetInCU: 0x11787, offset: 0x1AF0F, size: 0x8, addend: 0x0, symName: __ZNSt3__117__compressed_pairIPPNS_12basic_stringIcNS_11char_traitsIcEENS_9allocatorIcEEEENS4_IS7_EEEC1B7v160006IDnNS_18__default_init_tagEEEOT_OT0_, symObjAddr: 0x3A3C, symBinAddr: 0x100004E50, symSize: 0x3C }
  - { offsetInCU: 0x117DD, offset: 0x1AF65, size: 0x8, addend: 0x0, symName: __ZNSt3__117__compressed_pairIPPNS_12basic_stringIcNS_11char_traitsIcEENS_9allocatorIcEEEENS4_IS7_EEEC2B7v160006IDnNS_18__default_init_tagEEEOT_OT0_, symObjAddr: 0x3A78, symBinAddr: 0x100004E8C, symSize: 0x40 }
  - { offsetInCU: 0x11833, offset: 0x1AFBB, size: 0x8, addend: 0x0, symName: __ZNSt3__122__compressed_pair_elemIPPNS_12basic_stringIcNS_11char_traitsIcEENS_9allocatorIcEEEELi0ELb0EEC2B7v160006IDnvEEOT_, symObjAddr: 0x3AB8, symBinAddr: 0x100004ECC, symSize: 0x1C }
  - { offsetInCU: 0x11874, offset: 0x1AFFC, size: 0x8, addend: 0x0, symName: __ZNSt3__122__compressed_pair_elemINS_9allocatorIPNS_12basic_stringIcNS_11char_traitsIcEENS1_IcEEEEEELi1ELb1EEC2B7v160006ENS_18__default_init_tagE, symObjAddr: 0x3AD4, symBinAddr: 0x100004EE8, symSize: 0x2C }
  - { offsetInCU: 0x118A6, offset: 0x1B02E, size: 0x8, addend: 0x0, symName: __ZNSt3__19allocatorIPNS_12basic_stringIcNS_11char_traitsIcEENS0_IcEEEEEC2B7v160006Ev, symObjAddr: 0x3B00, symBinAddr: 0x100004F14, symSize: 0x2C }
  - { offsetInCU: 0x118CE, offset: 0x1B056, size: 0x8, addend: 0x0, symName: __ZNSt3__116__non_trivial_ifILb1ENS_9allocatorIPNS_12basic_stringIcNS_11char_traitsIcEENS1_IcEEEEEEEC2B7v160006Ev, symObjAddr: 0x3B2C, symBinAddr: 0x100004F40, symSize: 0x14 }
  - { offsetInCU: 0x118F6, offset: 0x1B07E, size: 0x8, addend: 0x0, symName: __ZNSt3__117__compressed_pairImNS_9allocatorINS_12basic_stringIcNS_11char_traitsIcEENS1_IcEEEEEEEC2B7v160006IiNS_18__default_init_tagEEEOT_OT0_, symObjAddr: 0x3B40, symBinAddr: 0x100004F54, symSize: 0x40 }
  - { offsetInCU: 0x1194C, offset: 0x1B0D4, size: 0x8, addend: 0x0, symName: __ZNSt3__122__compressed_pair_elemImLi0ELb0EEC2B7v160006IivEEOT_, symObjAddr: 0x3B80, symBinAddr: 0x100004F94, symSize: 0x24 }
  - { offsetInCU: 0x1198D, offset: 0x1B115, size: 0x8, addend: 0x0, symName: __ZNSt3__122__compressed_pair_elemINS_9allocatorINS_12basic_stringIcNS_11char_traitsIcEENS1_IcEEEEEELi1ELb1EEC2B7v160006ENS_18__default_init_tagE, symObjAddr: 0x3BA4, symBinAddr: 0x100004FB8, symSize: 0x2C }
  - { offsetInCU: 0x119BF, offset: 0x1B147, size: 0x8, addend: 0x0, symName: __ZNSt3__19allocatorINS_12basic_stringIcNS_11char_traitsIcEENS0_IcEEEEEC2B7v160006Ev, symObjAddr: 0x3BD0, symBinAddr: 0x100004FE4, symSize: 0x2C }
  - { offsetInCU: 0x119E7, offset: 0x1B16F, size: 0x8, addend: 0x0, symName: __ZNSt3__116__non_trivial_ifILb1ENS_9allocatorINS_12basic_stringIcNS_11char_traitsIcEENS1_IcEEEEEEEC2B7v160006Ev, symObjAddr: 0x3BFC, symBinAddr: 0x100005010, symSize: 0x14 }
  - { offsetInCU: 0x11A0F, offset: 0x1B197, size: 0x8, addend: 0x0, symName: __ZNSt3__19basic_iosIcNS_11char_traitsIcEEEC2B7v160006Ev, symObjAddr: 0x3C10, symBinAddr: 0x100005024, symSize: 0x44 }
  - { offsetInCU: 0x11A37, offset: 0x1B1BF, size: 0x8, addend: 0x0, symName: __ZNSt3__113basic_istreamIcNS_11char_traitsIcEEEC2B7v160006EPNS_15basic_streambufIcS2_EE, symObjAddr: 0x3C54, symBinAddr: 0x100005068, symSize: 0x64 }
  - { offsetInCU: 0x11A79, offset: 0x1B201, size: 0x8, addend: 0x0, symName: __ZNSt3__115basic_stringbufIcNS_11char_traitsIcEENS_9allocatorIcEEEC1B7v160006ERKNS_12basic_stringIcS2_S4_EEj, symObjAddr: 0x3CB8, symBinAddr: 0x1000050CC, symSize: 0x3C }
  - { offsetInCU: 0x11ABD, offset: 0x1B245, size: 0x8, addend: 0x0, symName: __ZNSt3__18ios_baseC2B7v160006Ev, symObjAddr: 0x3CF4, symBinAddr: 0x100005108, symSize: 0x24 }
  - { offsetInCU: 0x11AE5, offset: 0x1B26D, size: 0x8, addend: 0x0, symName: __ZNSt3__19basic_iosIcNS_11char_traitsIcEEE4initB7v160006EPNS_15basic_streambufIcS2_EE, symObjAddr: 0x3D18, symBinAddr: 0x10000512C, symSize: 0x44 }
  - { offsetInCU: 0x11B1A, offset: 0x1B2A2, size: 0x8, addend: 0x0, symName: __ZNSt3__115basic_stringbufIcNS_11char_traitsIcEENS_9allocatorIcEEEC2B7v160006ERKNS_12basic_stringIcS2_S4_EEj, symObjAddr: 0x3D64, symBinAddr: 0x100005170, symSize: 0xD8 }
  - { offsetInCU: 0x11B5E, offset: 0x1B2E6, size: 0x8, addend: 0x0, symName: __ZNKSt3__112basic_stringIcNS_11char_traitsIcEENS_9allocatorIcEEE13get_allocatorB7v160006Ev, symObjAddr: 0x3E3C, symBinAddr: 0x100005248, symSize: 0x24 }
  - { offsetInCU: 0x11B82, offset: 0x1B30A, size: 0x8, addend: 0x0, symName: __ZNSt3__112basic_stringIcNS_11char_traitsIcEENS_9allocatorIcEEEC1B7v160006ERKS4_, symObjAddr: 0x3E60, symBinAddr: 0x10000526C, symSize: 0x34 }
  - { offsetInCU: 0x11BB9, offset: 0x1B341, size: 0x8, addend: 0x0, symName: __ZNKSt3__112basic_stringIcNS_11char_traitsIcEENS_9allocatorIcEEE7__allocB7v160006Ev, symObjAddr: 0x3E94, symBinAddr: 0x1000052A0, symSize: 0x24 }
  - { offsetInCU: 0x11BDD, offset: 0x1B365, size: 0x8, addend: 0x0, symName: __ZNKSt3__117__compressed_pairINS_12basic_stringIcNS_11char_traitsIcEENS_9allocatorIcEEE5__repES5_E6secondB7v160006Ev, symObjAddr: 0x3EB8, symBinAddr: 0x1000052C4, symSize: 0x24 }
  - { offsetInCU: 0x11C01, offset: 0x1B389, size: 0x8, addend: 0x0, symName: __ZNKSt3__122__compressed_pair_elemINS_9allocatorIcEELi1ELb1EE5__getB7v160006Ev, symObjAddr: 0x3EDC, symBinAddr: 0x1000052E8, symSize: 0x14 }
  - { offsetInCU: 0x11C25, offset: 0x1B3AD, size: 0x8, addend: 0x0, symName: __ZNSt3__112basic_stringIcNS_11char_traitsIcEENS_9allocatorIcEEEC2B7v160006ERKS4_, symObjAddr: 0x3EF0, symBinAddr: 0x1000052FC, symSize: 0x48 }
  - { offsetInCU: 0x11C5C, offset: 0x1B3E4, size: 0x8, addend: 0x0, symName: __ZNSt3__117__compressed_pairINS_12basic_stringIcNS_11char_traitsIcEENS_9allocatorIcEEE5__repES5_EC1B7v160006INS_18__default_init_tagERKS5_EEOT_OT0_, symObjAddr: 0x3F38, symBinAddr: 0x100005344, symSize: 0x3C }
  - { offsetInCU: 0x11CB2, offset: 0x1B43A, size: 0x8, addend: 0x0, symName: __ZNSt3__112basic_stringIcNS_11char_traitsIcEENS_9allocatorIcEEE14__default_initB7v160006Ev, symObjAddr: 0x3F74, symBinAddr: 0x100005380, symSize: 0xB0 }
  - { offsetInCU: 0x11D03, offset: 0x1B48B, size: 0x8, addend: 0x0, symName: __ZNSt3__117__compressed_pairINS_12basic_stringIcNS_11char_traitsIcEENS_9allocatorIcEEE5__repES5_EC2B7v160006INS_18__default_init_tagERKS5_EEOT_OT0_, symObjAddr: 0x4024, symBinAddr: 0x100005430, symSize: 0x40 }
  - { offsetInCU: 0x11D59, offset: 0x1B4E1, size: 0x8, addend: 0x0, symName: __ZNSt3__122__compressed_pair_elemINS_9allocatorIcEELi1ELb1EEC2B7v160006IRKS2_vEEOT_, symObjAddr: 0x4064, symBinAddr: 0x100005470, symSize: 0x18 }
  - { offsetInCU: 0x11D9A, offset: 0x1B522, size: 0x8, addend: 0x0, symName: __ZNSt3__112basic_stringIcNS_11char_traitsIcEENS_9allocatorIcEEE11__recommendB7v160006Em, symObjAddr: 0x407C, symBinAddr: 0x100005488, symSize: 0x9C }
  - { offsetInCU: 0x11DCC, offset: 0x1B554, size: 0x8, addend: 0x0, symName: __ZNSt3__116allocator_traitsINS_9allocatorIcEEE8allocateB7v160006ERS2_m, symObjAddr: 0x4118, symBinAddr: 0x100005524, symSize: 0x2C }
  - { offsetInCU: 0x11DFE, offset: 0x1B586, size: 0x8, addend: 0x0, symName: __ZNSt3__112basic_stringIcNS_11char_traitsIcEENS_9allocatorIcEEE7__allocB7v160006Ev, symObjAddr: 0x4144, symBinAddr: 0x100005550, symSize: 0x24 }
  - { offsetInCU: 0x11E22, offset: 0x1B5AA, size: 0x8, addend: 0x0, symName: __ZNSt3__112basic_stringIcNS_11char_traitsIcEENS_9allocatorIcEEE16__begin_lifetimeB7v160006EPcm, symObjAddr: 0x4168, symBinAddr: 0x100005574, symSize: 0x14 }
  - { offsetInCU: 0x11E54, offset: 0x1B5DC, size: 0x8, addend: 0x0, symName: __ZNSt3__112basic_stringIcNS_11char_traitsIcEENS_9allocatorIcEEE18__set_long_pointerB7v160006EPc, symObjAddr: 0x417C, symBinAddr: 0x100005588, symSize: 0x38 }
  - { offsetInCU: 0x11E87, offset: 0x1B60F, size: 0x8, addend: 0x0, symName: __ZNSt3__112basic_stringIcNS_11char_traitsIcEENS_9allocatorIcEEE14__set_long_capB7v160006Em, symObjAddr: 0x41B4, symBinAddr: 0x1000055C0, symSize: 0x70 }
  - { offsetInCU: 0x11EBA, offset: 0x1B642, size: 0x8, addend: 0x0, symName: __ZNSt3__112basic_stringIcNS_11char_traitsIcEENS_9allocatorIcEEE15__set_long_sizeB7v160006Em, symObjAddr: 0x4224, symBinAddr: 0x100005630, symSize: 0x38 }
  - { offsetInCU: 0x11EED, offset: 0x1B675, size: 0x8, addend: 0x0, symName: __ZNSt3__112basic_stringIcNS_11char_traitsIcEENS_9allocatorIcEEE10__align_itB7v160006ILm16EEEmm, symObjAddr: 0x425C, symBinAddr: 0x100005668, symSize: 0x1C }
  - { offsetInCU: 0x11F1A, offset: 0x1B6A2, size: 0x8, addend: 0x0, symName: __ZNSt3__19allocatorIcE8allocateB7v160006Em, symObjAddr: 0x4278, symBinAddr: 0x100005684, symSize: 0x84 }
  - { offsetInCU: 0x11F56, offset: 0x1B6DE, size: 0x8, addend: 0x0, symName: __ZNSt3__116allocator_traitsINS_9allocatorIcEEE8max_sizeB7v160006IS2_vEEmRKS2_, symObjAddr: 0x42FC, symBinAddr: 0x100005708, symSize: 0x24 }
  - { offsetInCU: 0x11F84, offset: 0x1B70C, size: 0x8, addend: 0x0, symName: __ZNKSt3__19allocatorIcE8max_sizeB7v160006Ev, symObjAddr: 0x437C, symBinAddr: 0x100005788, symSize: 0x14 }
  - { offsetInCU: 0x11FA8, offset: 0x1B730, size: 0x8, addend: 0x0, symName: __ZNSt3__117__compressed_pairINS_12basic_stringIcNS_11char_traitsIcEENS_9allocatorIcEEE5__repES5_E6secondB7v160006Ev, symObjAddr: 0x43B4, symBinAddr: 0x1000057C0, symSize: 0x24 }
  - { offsetInCU: 0x11FCC, offset: 0x1B754, size: 0x8, addend: 0x0, symName: __ZNSt3__122__compressed_pair_elemINS_9allocatorIcEELi1ELb1EE5__getB7v160006Ev, symObjAddr: 0x43D8, symBinAddr: 0x1000057E4, symSize: 0x14 }
  - { offsetInCU: 0x1200E, offset: 0x1B796, size: 0x8, addend: 0x0, symName: __ZNKSt3__113basic_istreamIcNS_11char_traitsIcEEE6sentrycvbB7v160006Ev, symObjAddr: 0x43EC, symBinAddr: 0x1000057F8, symSize: 0x1C }
  - { offsetInCU: 0x12032, offset: 0x1B7BA, size: 0x8, addend: 0x0, symName: __ZNSt3__112basic_stringIcNS_11char_traitsIcEENS_9allocatorIcEEE5clearB7v160006Ev, symObjAddr: 0x4408, symBinAddr: 0x100005814, symSize: 0x9C }
  - { offsetInCU: 0x12058, offset: 0x1B7E0, size: 0x8, addend: 0x0, symName: __ZNSt3__115basic_streambufIcNS_11char_traitsIcEEE6sbumpcB7v160006Ev, symObjAddr: 0x44C8, symBinAddr: 0x1000058B0, symSize: 0x78 }
  - { offsetInCU: 0x1207C, offset: 0x1B804, size: 0x8, addend: 0x0, symName: __ZNSt3__111char_traitsIcE12to_char_typeEi, symObjAddr: 0x4568, symBinAddr: 0x100005928, symSize: 0x18 }
  - { offsetInCU: 0x1209E, offset: 0x1B826, size: 0x8, addend: 0x0, symName: __ZNSt3__111char_traitsIcE2eqEcc, symObjAddr: 0x4580, symBinAddr: 0x100005940, symSize: 0x28 }
  - { offsetInCU: 0x120CE, offset: 0x1B856, size: 0x8, addend: 0x0, symName: __ZNKSt3__112basic_stringIcNS_11char_traitsIcEENS_9allocatorIcEEE8max_sizeB7v160006Ev, symObjAddr: 0x45A8, symBinAddr: 0x100005968, symSize: 0xAC }
  - { offsetInCU: 0x1211F, offset: 0x1B8A7, size: 0x8, addend: 0x0, symName: __ZNSt3__18ios_base18__setstate_nothrowB7v160006Ej, symObjAddr: 0x4654, symBinAddr: 0x100005A14, symSize: 0x64 }
  - { offsetInCU: 0x12152, offset: 0x1B8DA, size: 0x8, addend: 0x0, symName: __ZNKSt3__19basic_iosIcNS_11char_traitsIcEEE10exceptionsB7v160006Ev, symObjAddr: 0x46B8, symBinAddr: 0x100005A78, symSize: 0x24 }
  - { offsetInCU: 0x12176, offset: 0x1B8FE, size: 0x8, addend: 0x0, symName: __ZNSt3__111char_traitsIcE6assignERcRKc, symObjAddr: 0x4718, symBinAddr: 0x100005AAC, symSize: 0x24 }
  - { offsetInCU: 0x121A6, offset: 0x1B92E, size: 0x8, addend: 0x0, symName: __ZNSt3__112basic_stringIcNS_11char_traitsIcEENS_9allocatorIcEEE16__set_short_sizeB7v160006Em, symObjAddr: 0x473C, symBinAddr: 0x100005AD0, symSize: 0x78 }
  - { offsetInCU: 0x121D9, offset: 0x1B961, size: 0x8, addend: 0x0, symName: __ZNSt3__111char_traitsIcE11to_int_typeEc, symObjAddr: 0x47CC, symBinAddr: 0x100005B48, symSize: 0x14 }
  - { offsetInCU: 0x121FB, offset: 0x1B983, size: 0x8, addend: 0x0, symName: __ZNSt3__114numeric_limitsImE3maxB7v160006Ev, symObjAddr: 0x47E0, symBinAddr: 0x100005B5C, symSize: 0x14 }
  - { offsetInCU: 0x1220F, offset: 0x1B997, size: 0x8, addend: 0x0, symName: __ZNSt3__123__libcpp_numeric_limitsImLb1EE3maxB7v160006Ev, symObjAddr: 0x47F4, symBinAddr: 0x100005B70, symSize: 0x8 }
  - { offsetInCU: 0x12222, offset: 0x1B9AA, size: 0x8, addend: 0x0, symName: __ZNKSt3__18ios_base10exceptionsB7v160006Ev, symObjAddr: 0x47FC, symBinAddr: 0x100005B78, symSize: 0x18 }
  - { offsetInCU: 0x12248, offset: 0x1B9D0, size: 0x8, addend: 0x0, symName: __ZNKSt3__19basic_iosIcNS_11char_traitsIcEEE4failB7v160006Ev, symObjAddr: 0x4848, symBinAddr: 0x100005B90, symSize: 0x28 }
  - { offsetInCU: 0x1226C, offset: 0x1B9F4, size: 0x8, addend: 0x0, symName: __ZNKSt3__18ios_base4failB7v160006Ev, symObjAddr: 0x4870, symBinAddr: 0x100005BB8, symSize: 0x28 }
  - { offsetInCU: 0x12292, offset: 0x1BA1A, size: 0x8, addend: 0x0, symName: __ZNKSt3__112basic_stringIcNS_11char_traitsIcEENS_9allocatorIcEEE15__get_long_sizeB7v160006Ev, symObjAddr: 0x4898, symBinAddr: 0x100005BE0, symSize: 0x28 }
  - { offsetInCU: 0x122B6, offset: 0x1BA3E, size: 0x8, addend: 0x0, symName: __ZNKSt3__112basic_stringIcNS_11char_traitsIcEENS_9allocatorIcEEE16__get_short_sizeB7v160006Ev, symObjAddr: 0x48C0, symBinAddr: 0x100005C08, symSize: 0x34 }
  - { offsetInCU: 0x122DA, offset: 0x1BA62, size: 0x8, addend: 0x0, symName: __ZNSt3__15dequeINS_12basic_stringIcNS_11char_traitsIcEENS_9allocatorIcEEEENS4_IS6_EEE9push_backERKS6_, symObjAddr: 0x48F4, symBinAddr: 0x100005C3C, symSize: 0xA0 }
  - { offsetInCU: 0x1231E, offset: 0x1BAA6, size: 0x8, addend: 0x0, symName: __ZNKSt3__15dequeINS_12basic_stringIcNS_11char_traitsIcEENS_9allocatorIcEEEENS4_IS6_EEE12__back_spareB7v160006Ev, symObjAddr: 0x4994, symBinAddr: 0x100005CDC, symSize: 0x54 }
  - { offsetInCU: 0x12342, offset: 0x1BACA, size: 0x8, addend: 0x0, symName: __ZNSt3__15dequeINS_12basic_stringIcNS_11char_traitsIcEENS_9allocatorIcEEEENS4_IS6_EEE19__add_back_capacityEv, symObjAddr: 0x49E8, symBinAddr: 0x100005D30, symSize: 0x32C }
  - { offsetInCU: 0x123F8, offset: 0x1BB80, size: 0x8, addend: 0x0, symName: __ZNSt3__116allocator_traitsINS_9allocatorINS_12basic_stringIcNS_11char_traitsIcEENS1_IcEEEEEEE9constructB7v160006IS6_JRKS6_EvEEvRS7_PT_DpOT0_, symObjAddr: 0x4D14, symBinAddr: 0x10000605C, symSize: 0x34 }
  - { offsetInCU: 0x12450, offset: 0x1BBD8, size: 0x8, addend: 0x0, symName: __ZNKSt3__15dequeINS_12basic_stringIcNS_11char_traitsIcEENS_9allocatorIcEEEENS4_IS6_EEE10__capacityB7v160006Ev, symObjAddr: 0x4D48, symBinAddr: 0x100006090, symSize: 0x64 }
  - { offsetInCU: 0x12474, offset: 0x1BBFC, size: 0x8, addend: 0x0, symName: __ZNKSt3__15dequeINS_12basic_stringIcNS_11char_traitsIcEENS_9allocatorIcEEEENS4_IS6_EEE13__front_spareB7v160006Ev, symObjAddr: 0x4DAC, symBinAddr: 0x1000060F4, symSize: 0x18 }
  - { offsetInCU: 0x12498, offset: 0x1BC20, size: 0x8, addend: 0x0, symName: __ZNSt3__114__split_bufferIPNS_12basic_stringIcNS_11char_traitsIcEENS_9allocatorIcEEEENS4_IS7_EEE9push_backB7v160006ERKS7_, symObjAddr: 0x4DC4, symBinAddr: 0x10000610C, symSize: 0x270 }
  - { offsetInCU: 0x1250F, offset: 0x1BC97, size: 0x8, addend: 0x0, symName: __ZNKSt3__114__split_bufferIPNS_12basic_stringIcNS_11char_traitsIcEENS_9allocatorIcEEEENS4_IS7_EEE12__back_spareB7v160006Ev, symObjAddr: 0x5034, symBinAddr: 0x10000637C, symSize: 0x40 }
  - { offsetInCU: 0x12533, offset: 0x1BCBB, size: 0x8, addend: 0x0, symName: __ZNSt3__114__split_bufferIPNS_12basic_stringIcNS_11char_traitsIcEENS_9allocatorIcEEEENS4_IS7_EEE9push_backEOS7_, symObjAddr: 0x5074, symBinAddr: 0x1000063BC, symSize: 0x270 }
  - { offsetInCU: 0x125AA, offset: 0x1BD32, size: 0x8, addend: 0x0, symName: __ZNSt3__116allocator_traitsINS_9allocatorINS_12basic_stringIcNS_11char_traitsIcEENS1_IcEEEEEEE8allocateB7v160006ERS7_m, symObjAddr: 0x52E4, symBinAddr: 0x10000662C, symSize: 0x2C }
  - { offsetInCU: 0x125DC, offset: 0x1BD64, size: 0x8, addend: 0x0, symName: __ZNSt3__114__split_bufferIPNS_12basic_stringIcNS_11char_traitsIcEENS_9allocatorIcEEEENS4_IS7_EEE10push_frontEOS7_, symObjAddr: 0x5310, symBinAddr: 0x100006658, symSize: 0x26C }
  - { offsetInCU: 0x12653, offset: 0x1BDDB, size: 0x8, addend: 0x0, symName: __ZNSt3__114__split_bufferIPNS_12basic_stringIcNS_11char_traitsIcEENS_9allocatorIcEEEERNS4_IS7_EEEC1EmmS9_, symObjAddr: 0x55A8, symBinAddr: 0x1000068F0, symSize: 0x44 }
  - { offsetInCU: 0x126AD, offset: 0x1BE35, size: 0x8, addend: 0x0, symName: __ZNSt3__122__allocator_destructorINS_9allocatorINS_12basic_stringIcNS_11char_traitsIcEENS1_IcEEEEEEEC1B7v160006ERS7_m, symObjAddr: 0x55EC, symBinAddr: 0x100006934, symSize: 0x3C }
  - { offsetInCU: 0x12778, offset: 0x1BF00, size: 0x8, addend: 0x0, symName: __ZNSt3__110unique_ptrIPNS_12basic_stringIcNS_11char_traitsIcEENS_9allocatorIcEEEENS_22__allocator_destructorINS4_IS6_EEEEEC1B7v160006ILb1EvEES7_NS_16__dependent_typeINS_27__unique_ptr_deleter_sfinaeISA_EEXT_EE20__good_rval_ref_typeE, symObjAddr: 0x5628, symBinAddr: 0x100006970, symSize: 0x3C }
  - { offsetInCU: 0x127C8, offset: 0x1BF50, size: 0x8, addend: 0x0, symName: __ZNSt3__114__split_bufferIPNS_12basic_stringIcNS_11char_traitsIcEENS_9allocatorIcEEEERNS4_IS7_EEE9push_backEOS7_, symObjAddr: 0x5664, symBinAddr: 0x1000069AC, symSize: 0x270 }
  - { offsetInCU: 0x1283F, offset: 0x1BFC7, size: 0x8, addend: 0x0, symName: __ZNKSt3__110unique_ptrIPNS_12basic_stringIcNS_11char_traitsIcEENS_9allocatorIcEEEENS_22__allocator_destructorINS4_IS6_EEEEE3getB7v160006Ev, symObjAddr: 0x58D4, symBinAddr: 0x100006C1C, symSize: 0x28 }
  - { offsetInCU: 0x12863, offset: 0x1BFEB, size: 0x8, addend: 0x0, symName: __ZNSt3__110unique_ptrIPNS_12basic_stringIcNS_11char_traitsIcEENS_9allocatorIcEEEENS_22__allocator_destructorINS4_IS6_EEEEE7releaseB7v160006Ev, symObjAddr: 0x58FC, symBinAddr: 0x100006C44, symSize: 0x44 }
  - { offsetInCU: 0x12896, offset: 0x1C01E, size: 0x8, addend: 0x0, symName: __ZNSt3__114__split_bufferIPNS_12basic_stringIcNS_11char_traitsIcEENS_9allocatorIcEEEERNS4_IS7_EEE10push_frontERKS7_, symObjAddr: 0x5940, symBinAddr: 0x100006C88, symSize: 0x26C }
  - { offsetInCU: 0x1290D, offset: 0x1C095, size: 0x8, addend: 0x0, symName: __ZNSt3__114__split_bufferIPNS_12basic_stringIcNS_11char_traitsIcEENS_9allocatorIcEEEENS4_IS7_EEE9__end_capB7v160006Ev, symObjAddr: 0x5BE8, symBinAddr: 0x100006F30, symSize: 0x28 }
  - { offsetInCU: 0x12931, offset: 0x1C0B9, size: 0x8, addend: 0x0, symName: __ZNSt3__114__split_bufferIPNS_12basic_stringIcNS_11char_traitsIcEENS_9allocatorIcEEEERNS4_IS7_EEE9__end_capB7v160006Ev, symObjAddr: 0x5C10, symBinAddr: 0x100006F58, symSize: 0x28 }
  - { offsetInCU: 0x12955, offset: 0x1C0DD, size: 0x8, addend: 0x0, symName: __ZNSt3__110unique_ptrIPNS_12basic_stringIcNS_11char_traitsIcEENS_9allocatorIcEEEENS_22__allocator_destructorINS4_IS6_EEEEED1B7v160006Ev, symObjAddr: 0x5C38, symBinAddr: 0x100006F80, symSize: 0x2C }
  - { offsetInCU: 0x1297D, offset: 0x1C105, size: 0x8, addend: 0x0, symName: __ZNSt3__114__split_bufferIPNS_12basic_stringIcNS_11char_traitsIcEENS_9allocatorIcEEEERNS4_IS7_EEED1Ev, symObjAddr: 0x5C64, symBinAddr: 0x100006FAC, symSize: 0x2C }
  - { offsetInCU: 0x129A8, offset: 0x1C130, size: 0x8, addend: 0x0, symName: __ZNSt3__114__split_bufferIPNS_12basic_stringIcNS_11char_traitsIcEENS_9allocatorIcEEEERNS4_IS7_EEE18__construct_at_endINS_13move_iteratorIPS7_EEEENS_9enable_ifIXsr27__is_cpp17_forward_iteratorIT_EE5valueEvE4typeESG_SG_, symObjAddr: 0x5CD0, symBinAddr: 0x100007018, symSize: 0x104 }
  - { offsetInCU: 0x12A02, offset: 0x1C18A, size: 0x8, addend: 0x0, symName: __ZNSt3__113move_iteratorIPPNS_12basic_stringIcNS_11char_traitsIcEENS_9allocatorIcEEEEEC1B7v160006ES8_, symObjAddr: 0x5DD4, symBinAddr: 0x10000711C, symSize: 0x34 }
  - { offsetInCU: 0x12A38, offset: 0x1C1C0, size: 0x8, addend: 0x0, symName: __ZNSt3__116allocator_traitsINS_9allocatorIPNS_12basic_stringIcNS_11char_traitsIcEENS1_IcEEEEEEE9constructB7v160006IS7_JRKS7_EvEEvRS8_PT_DpOT0_, symObjAddr: 0x5E08, symBinAddr: 0x100007150, symSize: 0x34 }
  - { offsetInCU: 0x12AB3, offset: 0x1C23B, size: 0x8, addend: 0x0, symName: __ZNKSt3__114__move_trivialclB7v160006IPNS_12basic_stringIcNS_11char_traitsIcEENS_9allocatorIcEEEES8_Li0EEENS_4pairIPT_PT0_EESB_SB_SD_, symObjAddr: 0x5FE8, symBinAddr: 0x100007330, symSize: 0x48 }
  - { offsetInCU: 0x12B1A, offset: 0x1C2A2, size: 0x8, addend: 0x0, symName: __ZNSt3__14pairIPPNS_12basic_stringIcNS_11char_traitsIcEENS_9allocatorIcEEEES8_EC1B7v160006ERKS8_SB_, symObjAddr: 0x61C4, symBinAddr: 0x10000750C, symSize: 0x3C }
  - { offsetInCU: 0x12B5E, offset: 0x1C2E6, size: 0x8, addend: 0x0, symName: __ZNSt3__14pairIPPNS_12basic_stringIcNS_11char_traitsIcEENS_9allocatorIcEEEES8_EC2B7v160006ERKS8_SB_, symObjAddr: 0x6200, symBinAddr: 0x100007548, symSize: 0x34 }
  - { offsetInCU: 0x12BA2, offset: 0x1C32A, size: 0x8, addend: 0x0, symName: __ZNSt3__118__unwrap_iter_implIPPNS_12basic_stringIcNS_11char_traitsIcEENS_9allocatorIcEEEELb1EE8__unwrapB7v160006ES8_, symObjAddr: 0x6234, symBinAddr: 0x10000757C, symSize: 0x24 }
  - { offsetInCU: 0x12BC4, offset: 0x1C34C, size: 0x8, addend: 0x0, symName: __ZNSt3__118__unwrap_iter_implIPPNS_12basic_stringIcNS_11char_traitsIcEENS_9allocatorIcEEEELb1EE8__rewrapB7v160006ES8_S8_, symObjAddr: 0x6258, symBinAddr: 0x1000075A0, symSize: 0x50 }
  - { offsetInCU: 0x12BFE, offset: 0x1C386, size: 0x8, addend: 0x0, symName: __ZNSt3__114__split_bufferIPNS_12basic_stringIcNS_11char_traitsIcEENS_9allocatorIcEEEERNS4_IS7_EEE21_ConstructTransactionC1B7v160006EPPS7_m, symObjAddr: 0x62E4, symBinAddr: 0x10000762C, symSize: 0x3C }
  - { offsetInCU: 0x12C42, offset: 0x1C3CA, size: 0x8, addend: 0x0, symName: __ZNSt3__116allocator_traitsINS_9allocatorIPNS_12basic_stringIcNS_11char_traitsIcEENS1_IcEEEEEEE9constructB7v160006IS7_JS7_EvEEvRS8_PT_DpOT0_, symObjAddr: 0x6320, symBinAddr: 0x100007668, symSize: 0x34 }
  - { offsetInCU: 0x12C9A, offset: 0x1C422, size: 0x8, addend: 0x0, symName: __ZNSt3__114__split_bufferIPNS_12basic_stringIcNS_11char_traitsIcEENS_9allocatorIcEEEERNS4_IS7_EEE7__allocB7v160006Ev, symObjAddr: 0x6354, symBinAddr: 0x10000769C, symSize: 0x28 }
  - { offsetInCU: 0x12CBE, offset: 0x1C446, size: 0x8, addend: 0x0, symName: __ZNKSt3__113move_iteratorIPPNS_12basic_stringIcNS_11char_traitsIcEENS_9allocatorIcEEEEEdeB7v160006Ev, symObjAddr: 0x637C, symBinAddr: 0x1000076C4, symSize: 0x18 }
  - { offsetInCU: 0x12CE2, offset: 0x1C46A, size: 0x8, addend: 0x0, symName: __ZNSt3__113move_iteratorIPPNS_12basic_stringIcNS_11char_traitsIcEENS_9allocatorIcEEEEEppB7v160006Ev, symObjAddr: 0x6394, symBinAddr: 0x1000076DC, symSize: 0x20 }
  - { offsetInCU: 0x12D06, offset: 0x1C48E, size: 0x8, addend: 0x0, symName: __ZNSt3__114__split_bufferIPNS_12basic_stringIcNS_11char_traitsIcEENS_9allocatorIcEEEERNS4_IS7_EEE21_ConstructTransactionD1B7v160006Ev, symObjAddr: 0x63B4, symBinAddr: 0x1000076FC, symSize: 0x2C }
  - { offsetInCU: 0x12D2E, offset: 0x1C4B6, size: 0x8, addend: 0x0, symName: __ZNKSt3__113move_iteratorIPPNS_12basic_stringIcNS_11char_traitsIcEENS_9allocatorIcEEEEE4baseB7v160006Ev, symObjAddr: 0x6458, symBinAddr: 0x1000077A0, symSize: 0x18 }
  - { offsetInCU: 0x12D52, offset: 0x1C4DA, size: 0x8, addend: 0x0, symName: __ZNSt3__114__split_bufferIPNS_12basic_stringIcNS_11char_traitsIcEENS_9allocatorIcEEEERNS4_IS7_EEE21_ConstructTransactionC2B7v160006EPPS7_m, symObjAddr: 0x6470, symBinAddr: 0x1000077B8, symSize: 0x44 }
  - { offsetInCU: 0x12D96, offset: 0x1C51E, size: 0x8, addend: 0x0, symName: __ZNSt3__19allocatorIPNS_12basic_stringIcNS_11char_traitsIcEENS0_IcEEEEE9constructB7v160006IS6_JS6_EEEvPT_DpOT0_, symObjAddr: 0x64B4, symBinAddr: 0x1000077FC, symSize: 0x28 }
  - { offsetInCU: 0x12DEB, offset: 0x1C573, size: 0x8, addend: 0x0, symName: __ZNSt3__117__compressed_pairIPPNS_12basic_stringIcNS_11char_traitsIcEENS_9allocatorIcEEEERNS4_IS7_EEE6secondB7v160006Ev, symObjAddr: 0x64DC, symBinAddr: 0x100007824, symSize: 0x28 }
  - { offsetInCU: 0x12E0F, offset: 0x1C597, size: 0x8, addend: 0x0, symName: __ZNSt3__122__compressed_pair_elemIRNS_9allocatorIPNS_12basic_stringIcNS_11char_traitsIcEENS1_IcEEEEEELi1ELb0EE5__getB7v160006Ev, symObjAddr: 0x6504, symBinAddr: 0x10000784C, symSize: 0x18 }
  - { offsetInCU: 0x12E33, offset: 0x1C5BB, size: 0x8, addend: 0x0, symName: __ZNSt3__114__split_bufferIPNS_12basic_stringIcNS_11char_traitsIcEENS_9allocatorIcEEEERNS4_IS7_EEE21_ConstructTransactionD2B7v160006Ev, symObjAddr: 0x651C, symBinAddr: 0x100007864, symSize: 0x20 }
  - { offsetInCU: 0x12E5B, offset: 0x1C5E3, size: 0x8, addend: 0x0, symName: __ZNSt3__113move_iteratorIPPNS_12basic_stringIcNS_11char_traitsIcEENS_9allocatorIcEEEEEC2B7v160006ES8_, symObjAddr: 0x653C, symBinAddr: 0x100007884, symSize: 0x20 }
  - { offsetInCU: 0x12E91, offset: 0x1C619, size: 0x8, addend: 0x0, symName: __ZNSt3__19allocatorIPNS_12basic_stringIcNS_11char_traitsIcEENS0_IcEEEEE9constructB7v160006IS6_JRKS6_EEEvPT_DpOT0_, symObjAddr: 0x655C, symBinAddr: 0x1000078A4, symSize: 0x28 }
  - { offsetInCU: 0x12EE6, offset: 0x1C66E, size: 0x8, addend: 0x0, symName: __ZNSt3__19allocatorINS_12basic_stringIcNS_11char_traitsIcEENS0_IcEEEEE8allocateB7v160006Em, symObjAddr: 0x6584, symBinAddr: 0x1000078CC, symSize: 0x8C }
  - { offsetInCU: 0x12F22, offset: 0x1C6AA, size: 0x8, addend: 0x0, symName: __ZNSt3__116allocator_traitsINS_9allocatorINS_12basic_stringIcNS_11char_traitsIcEENS1_IcEEEEEEE8max_sizeB7v160006IS7_vEEmRKS7_, symObjAddr: 0x6610, symBinAddr: 0x100007958, symSize: 0x24 }
  - { offsetInCU: 0x12F50, offset: 0x1C6D8, size: 0x8, addend: 0x0, symName: __ZNKSt3__19allocatorINS_12basic_stringIcNS_11char_traitsIcEENS0_IcEEEEE8max_sizeB7v160006Ev, symObjAddr: 0x6634, symBinAddr: 0x10000797C, symSize: 0x18 }
  - { offsetInCU: 0x12F7E, offset: 0x1C706, size: 0x8, addend: 0x0, symName: __ZNKSt3__123__move_backward_trivialclB7v160006IPNS_12basic_stringIcNS_11char_traitsIcEENS_9allocatorIcEEEES8_Li0EEENS_4pairIPT_PT0_EESB_SB_SD_, symObjAddr: 0x67D8, symBinAddr: 0x100007B20, symSize: 0x48 }
  - { offsetInCU: 0x12FEF, offset: 0x1C777, size: 0x8, addend: 0x0, symName: __ZNKSt3__16__lessImmEclB7v160006ERKmS3_, symObjAddr: 0x6940, symBinAddr: 0x100007C88, symSize: 0x34 }
  - { offsetInCU: 0x1302F, offset: 0x1C7B7, size: 0x8, addend: 0x0, symName: __ZNSt3__114__split_bufferIPNS_12basic_stringIcNS_11char_traitsIcEENS_9allocatorIcEEEERNS4_IS7_EEEC2EmmS9_, symObjAddr: 0x6974, symBinAddr: 0x100007CBC, symSize: 0xD4 }
  - { offsetInCU: 0x130A2, offset: 0x1C82A, size: 0x8, addend: 0x0, symName: __ZNSt3__117__compressed_pairIPPNS_12basic_stringIcNS_11char_traitsIcEENS_9allocatorIcEEEERNS4_IS7_EEEC1B7v160006IDnSA_EEOT_OT0_, symObjAddr: 0x6A48, symBinAddr: 0x100007D90, symSize: 0x3C }
  - { offsetInCU: 0x130F8, offset: 0x1C880, size: 0x8, addend: 0x0, symName: __ZNSt3__117__compressed_pairIPPNS_12basic_stringIcNS_11char_traitsIcEENS_9allocatorIcEEEERNS4_IS7_EEEC2B7v160006IDnSA_EEOT_OT0_, symObjAddr: 0x6AC4, symBinAddr: 0x100007E0C, symSize: 0x48 }
  - { offsetInCU: 0x1314E, offset: 0x1C8D6, size: 0x8, addend: 0x0, symName: __ZNSt3__122__compressed_pair_elemIRNS_9allocatorIPNS_12basic_stringIcNS_11char_traitsIcEENS1_IcEEEEEELi1ELb0EEC2B7v160006IS9_vEEOT_, symObjAddr: 0x6B0C, symBinAddr: 0x100007E54, symSize: 0x20 }
  - { offsetInCU: 0x1318F, offset: 0x1C917, size: 0x8, addend: 0x0, symName: __ZNSt3__19allocatorIPNS_12basic_stringIcNS_11char_traitsIcEENS0_IcEEEEE8allocateB7v160006Em, symObjAddr: 0x6B2C, symBinAddr: 0x100007E74, symSize: 0x84 }
  - { offsetInCU: 0x131CB, offset: 0x1C953, size: 0x8, addend: 0x0, symName: __ZNSt3__116allocator_traitsINS_9allocatorIPNS_12basic_stringIcNS_11char_traitsIcEENS1_IcEEEEEEE8max_sizeB7v160006IS8_vEEmRKS8_, symObjAddr: 0x6BB0, symBinAddr: 0x100007EF8, symSize: 0x24 }
  - { offsetInCU: 0x131F9, offset: 0x1C981, size: 0x8, addend: 0x0, symName: __ZNKSt3__19allocatorIPNS_12basic_stringIcNS_11char_traitsIcEENS0_IcEEEEE8max_sizeB7v160006Ev, symObjAddr: 0x6BD4, symBinAddr: 0x100007F1C, symSize: 0x14 }
  - { offsetInCU: 0x1321D, offset: 0x1C9A5, size: 0x8, addend: 0x0, symName: __ZNSt3__122__allocator_destructorINS_9allocatorINS_12basic_stringIcNS_11char_traitsIcEENS1_IcEEEEEEEC2B7v160006ERS7_m, symObjAddr: 0x6BE8, symBinAddr: 0x100007F30, symSize: 0x2C }
  - { offsetInCU: 0x13261, offset: 0x1C9E9, size: 0x8, addend: 0x0, symName: __ZNSt3__110unique_ptrIPNS_12basic_stringIcNS_11char_traitsIcEENS_9allocatorIcEEEENS_22__allocator_destructorINS4_IS6_EEEEEC2B7v160006ILb1EvEES7_NS_16__dependent_typeINS_27__unique_ptr_deleter_sfinaeISA_EEXT_EE20__good_rval_ref_typeE, symObjAddr: 0x6C14, symBinAddr: 0x100007F5C, symSize: 0x5C }
  - { offsetInCU: 0x132B1, offset: 0x1CA39, size: 0x8, addend: 0x0, symName: __ZNSt3__117__compressed_pairIPNS_12basic_stringIcNS_11char_traitsIcEENS_9allocatorIcEEEENS_22__allocator_destructorINS4_IS6_EEEEEC1B7v160006IRS7_SA_EEOT_OT0_, symObjAddr: 0x6C70, symBinAddr: 0x100007FB8, symSize: 0x3C }
  - { offsetInCU: 0x13307, offset: 0x1CA8F, size: 0x8, addend: 0x0, symName: __ZNSt3__117__compressed_pairIPNS_12basic_stringIcNS_11char_traitsIcEENS_9allocatorIcEEEENS_22__allocator_destructorINS4_IS6_EEEEEC2B7v160006IRS7_SA_EEOT_OT0_, symObjAddr: 0x6CAC, symBinAddr: 0x100007FF4, symSize: 0x48 }
  - { offsetInCU: 0x1335D, offset: 0x1CAE5, size: 0x8, addend: 0x0, symName: __ZNSt3__122__compressed_pair_elemIPNS_12basic_stringIcNS_11char_traitsIcEENS_9allocatorIcEEEELi0ELb0EEC2B7v160006IRS7_vEEOT_, symObjAddr: 0x6CF4, symBinAddr: 0x10000803C, symSize: 0x24 }
  - { offsetInCU: 0x1339E, offset: 0x1CB26, size: 0x8, addend: 0x0, symName: __ZNSt3__122__compressed_pair_elemINS_22__allocator_destructorINS_9allocatorINS_12basic_stringIcNS_11char_traitsIcEENS2_IcEEEEEEEELi1ELb0EEC2B7v160006IS9_vEEOT_, symObjAddr: 0x6D18, symBinAddr: 0x100008060, symSize: 0x24 }
  - { offsetInCU: 0x133DF, offset: 0x1CB67, size: 0x8, addend: 0x0, symName: __ZNKSt3__117__compressed_pairIPNS_12basic_stringIcNS_11char_traitsIcEENS_9allocatorIcEEEENS_22__allocator_destructorINS4_IS6_EEEEE5firstB7v160006Ev, symObjAddr: 0x6D3C, symBinAddr: 0x100008084, symSize: 0x24 }
  - { offsetInCU: 0x13403, offset: 0x1CB8B, size: 0x8, addend: 0x0, symName: __ZNKSt3__122__compressed_pair_elemIPNS_12basic_stringIcNS_11char_traitsIcEENS_9allocatorIcEEEELi0ELb0EE5__getB7v160006Ev, symObjAddr: 0x6D60, symBinAddr: 0x1000080A8, symSize: 0x14 }
  - { offsetInCU: 0x13427, offset: 0x1CBAF, size: 0x8, addend: 0x0, symName: __ZNSt3__117__compressed_pairIPNS_12basic_stringIcNS_11char_traitsIcEENS_9allocatorIcEEEENS_22__allocator_destructorINS4_IS6_EEEEE5firstB7v160006Ev, symObjAddr: 0x6D74, symBinAddr: 0x1000080BC, symSize: 0x24 }
  - { offsetInCU: 0x1344B, offset: 0x1CBD3, size: 0x8, addend: 0x0, symName: __ZNSt3__122__compressed_pair_elemIPNS_12basic_stringIcNS_11char_traitsIcEENS_9allocatorIcEEEELi0ELb0EE5__getB7v160006Ev, symObjAddr: 0x6D98, symBinAddr: 0x1000080E0, symSize: 0x14 }
  - { offsetInCU: 0x1346F, offset: 0x1CBF7, size: 0x8, addend: 0x0, symName: __ZNSt3__117__compressed_pairIPPNS_12basic_stringIcNS_11char_traitsIcEENS_9allocatorIcEEEENS4_IS7_EEE5firstB7v160006Ev, symObjAddr: 0x6DAC, symBinAddr: 0x1000080F4, symSize: 0x24 }
  - { offsetInCU: 0x13493, offset: 0x1CC1B, size: 0x8, addend: 0x0, symName: __ZNSt3__122__compressed_pair_elemIPPNS_12basic_stringIcNS_11char_traitsIcEENS_9allocatorIcEEEELi0ELb0EE5__getB7v160006Ev, symObjAddr: 0x6DD0, symBinAddr: 0x100008118, symSize: 0x14 }
  - { offsetInCU: 0x134B7, offset: 0x1CC3F, size: 0x8, addend: 0x0, symName: __ZNSt3__117__compressed_pairIPPNS_12basic_stringIcNS_11char_traitsIcEENS_9allocatorIcEEEERNS4_IS7_EEE5firstB7v160006Ev, symObjAddr: 0x6DE4, symBinAddr: 0x10000812C, symSize: 0x24 }
  - { offsetInCU: 0x134DB, offset: 0x1CC63, size: 0x8, addend: 0x0, symName: __ZNSt3__110unique_ptrIPNS_12basic_stringIcNS_11char_traitsIcEENS_9allocatorIcEEEENS_22__allocator_destructorINS4_IS6_EEEEED2B7v160006Ev, symObjAddr: 0x6E08, symBinAddr: 0x100008150, symSize: 0x30 }
  - { offsetInCU: 0x13503, offset: 0x1CC8B, size: 0x8, addend: 0x0, symName: __ZNSt3__110unique_ptrIPNS_12basic_stringIcNS_11char_traitsIcEENS_9allocatorIcEEEENS_22__allocator_destructorINS4_IS6_EEEEE5resetB7v160006ES7_, symObjAddr: 0x6E38, symBinAddr: 0x100008180, symSize: 0x78 }
  - { offsetInCU: 0x13545, offset: 0x1CCCD, size: 0x8, addend: 0x0, symName: __ZNSt3__117__compressed_pairIPNS_12basic_stringIcNS_11char_traitsIcEENS_9allocatorIcEEEENS_22__allocator_destructorINS4_IS6_EEEEE6secondB7v160006Ev, symObjAddr: 0x6EB0, symBinAddr: 0x1000081F8, symSize: 0x28 }
  - { offsetInCU: 0x13569, offset: 0x1CCF1, size: 0x8, addend: 0x0, symName: __ZNSt3__122__allocator_destructorINS_9allocatorINS_12basic_stringIcNS_11char_traitsIcEENS1_IcEEEEEEEclB7v160006EPS6_, symObjAddr: 0x6ED8, symBinAddr: 0x100008220, symSize: 0x34 }
  - { offsetInCU: 0x1359B, offset: 0x1CD23, size: 0x8, addend: 0x0, symName: __ZNSt3__122__compressed_pair_elemINS_22__allocator_destructorINS_9allocatorINS_12basic_stringIcNS_11char_traitsIcEENS2_IcEEEEEEEELi1ELb0EE5__getB7v160006Ev, symObjAddr: 0x6F0C, symBinAddr: 0x100008254, symSize: 0x14 }
  - { offsetInCU: 0x135BF, offset: 0x1CD47, size: 0x8, addend: 0x0, symName: __ZNSt3__114__split_bufferIPNS_12basic_stringIcNS_11char_traitsIcEENS_9allocatorIcEEEERNS4_IS7_EEED2Ev, symObjAddr: 0x6F20, symBinAddr: 0x100008268, symSize: 0x80 }
  - { offsetInCU: 0x135EA, offset: 0x1CD72, size: 0x8, addend: 0x0, symName: __ZNSt3__114__split_bufferIPNS_12basic_stringIcNS_11char_traitsIcEENS_9allocatorIcEEEERNS4_IS7_EEE5clearB7v160006Ev, symObjAddr: 0x6FA0, symBinAddr: 0x1000082E8, symSize: 0x28 }
  - { offsetInCU: 0x1360E, offset: 0x1CD96, size: 0x8, addend: 0x0, symName: __ZNKSt3__114__split_bufferIPNS_12basic_stringIcNS_11char_traitsIcEENS_9allocatorIcEEEERNS4_IS7_EEE8capacityB7v160006Ev, symObjAddr: 0x6FC8, symBinAddr: 0x100008310, symSize: 0x40 }
  - { offsetInCU: 0x13632, offset: 0x1CDBA, size: 0x8, addend: 0x0, symName: __ZNSt3__114__split_bufferIPNS_12basic_stringIcNS_11char_traitsIcEENS_9allocatorIcEEEERNS4_IS7_EEE17__destruct_at_endB7v160006EPS7_, symObjAddr: 0x7008, symBinAddr: 0x100008350, symSize: 0x2C }
  - { offsetInCU: 0x13664, offset: 0x1CDEC, size: 0x8, addend: 0x0, symName: __ZNSt3__114__split_bufferIPNS_12basic_stringIcNS_11char_traitsIcEENS_9allocatorIcEEEERNS4_IS7_EEE17__destruct_at_endB7v160006EPS7_NS_17integral_constantIbLb0EEE, symObjAddr: 0x7034, symBinAddr: 0x10000837C, symSize: 0x94 }
  - { offsetInCU: 0x136A2, offset: 0x1CE2A, size: 0x8, addend: 0x0, symName: __ZNKSt3__114__split_bufferIPNS_12basic_stringIcNS_11char_traitsIcEENS_9allocatorIcEEEERNS4_IS7_EEE9__end_capB7v160006Ev, symObjAddr: 0x70C8, symBinAddr: 0x100008410, symSize: 0x28 }
  - { offsetInCU: 0x136C6, offset: 0x1CE4E, size: 0x8, addend: 0x0, symName: __ZNKSt3__117__compressed_pairIPPNS_12basic_stringIcNS_11char_traitsIcEENS_9allocatorIcEEEERNS4_IS7_EEE5firstB7v160006Ev, symObjAddr: 0x70F0, symBinAddr: 0x100008438, symSize: 0x24 }
  - { offsetInCU: 0x136EA, offset: 0x1CE72, size: 0x8, addend: 0x0, symName: __ZNSt3__19allocatorINS_12basic_stringIcNS_11char_traitsIcEENS0_IcEEEEE9constructB7v160006IS5_JRKS5_EEEvPT_DpOT0_, symObjAddr: 0x7114, symBinAddr: 0x10000845C, symSize: 0x30 }
  - { offsetInCU: 0x1373F, offset: 0x1CEC7, size: 0x8, addend: 0x0, symName: __ZNSt3__112basic_stringIcNS_11char_traitsIcEENS_9allocatorIcEEEC2B7v160006Ev, symObjAddr: 0x7144, symBinAddr: 0x10000848C, symSize: 0x44 }
  - { offsetInCU: 0x13767, offset: 0x1CEEF, size: 0x8, addend: 0x0, symName: __ZNSt3__15stackINS_12basic_stringIcNS_11char_traitsIcEENS_9allocatorIcEEEENS_5dequeIS6_NS4_IS6_EEEEEC2B7v160006ERKSA_, symObjAddr: 0x7188, symBinAddr: 0x1000084D0, symSize: 0x34 }
  - { offsetInCU: 0x1379D, offset: 0x1CF25, size: 0x8, addend: 0x0, symName: __ZNSt3__15dequeINS_12basic_stringIcNS_11char_traitsIcEENS_9allocatorIcEEEENS4_IS6_EEEC1ERKS8_, symObjAddr: 0x71BC, symBinAddr: 0x100008504, symSize: 0x34 }
  - { offsetInCU: 0x137D7, offset: 0x1CF5F, size: 0x8, addend: 0x0, symName: __ZNSt3__15dequeINS_12basic_stringIcNS_11char_traitsIcEENS_9allocatorIcEEEENS4_IS6_EEEC2ERKS8_, symObjAddr: 0x71F0, symBinAddr: 0x100008538, symSize: 0xF4 }
  - { offsetInCU: 0x13811, offset: 0x1CF99, size: 0x8, addend: 0x0, symName: __ZNSt3__116allocator_traitsINS_9allocatorINS_12basic_stringIcNS_11char_traitsIcEENS1_IcEEEEEEE37select_on_container_copy_constructionB7v160006IS7_vvEES7_RKS7_, symObjAddr: 0x72E4, symBinAddr: 0x10000862C, symSize: 0x10 }
  - { offsetInCU: 0x13841, offset: 0x1CFC9, size: 0x8, addend: 0x0, symName: __ZNKSt3__15dequeINS_12basic_stringIcNS_11char_traitsIcEENS_9allocatorIcEEEENS4_IS6_EEE7__allocB7v160006Ev, symObjAddr: 0x72F4, symBinAddr: 0x10000863C, symSize: 0x28 }
  - { offsetInCU: 0x13865, offset: 0x1CFED, size: 0x8, addend: 0x0, symName: __ZNSt3__19allocatorIPNS_12basic_stringIcNS_11char_traitsIcEENS0_IcEEEEEC1B7v160006IS5_EERKNS0_IT_EE, symObjAddr: 0x731C, symBinAddr: 0x100008664, symSize: 0x34 }
  - { offsetInCU: 0x138A0, offset: 0x1D028, size: 0x8, addend: 0x0, symName: __ZNSt3__114__split_bufferIPNS_12basic_stringIcNS_11char_traitsIcEENS_9allocatorIcEEEENS4_IS7_EEEC1ERKS8_, symObjAddr: 0x7350, symBinAddr: 0x100008698, symSize: 0x34 }
  - { offsetInCU: 0x138D9, offset: 0x1D061, size: 0x8, addend: 0x0, symName: __ZNSt3__117__compressed_pairImNS_9allocatorINS_12basic_stringIcNS_11char_traitsIcEENS1_IcEEEEEEEC1B7v160006IiRNS1_IPS6_EEEEOT_OT0_, symObjAddr: 0x7384, symBinAddr: 0x1000086CC, symSize: 0x3C }
  - { offsetInCU: 0x13934, offset: 0x1D0BC, size: 0x8, addend: 0x0, symName: __ZNSt3__15dequeINS_12basic_stringIcNS_11char_traitsIcEENS_9allocatorIcEEEENS4_IS6_EEE8__appendINS_16__deque_iteratorIS6_PKS6_RSB_PKSC_lLl170EEEEEvT_SH_PNS_9enable_ifIXsr27__is_cpp17_forward_iteratorISH_EE5valueEvE4typeE, symObjAddr: 0x73C0, symBinAddr: 0x100008708, symSize: 0x250 }
  - { offsetInCU: 0x13A22, offset: 0x1D1AA, size: 0x8, addend: 0x0, symName: __ZNKSt3__15dequeINS_12basic_stringIcNS_11char_traitsIcEENS_9allocatorIcEEEENS4_IS6_EEE5beginB7v160006Ev, symObjAddr: 0x7610, symBinAddr: 0x100008958, symSize: 0xB0 }
  - { offsetInCU: 0x13A55, offset: 0x1D1DD, size: 0x8, addend: 0x0, symName: __ZNKSt3__15dequeINS_12basic_stringIcNS_11char_traitsIcEENS_9allocatorIcEEEENS4_IS6_EEE3endB7v160006Ev, symObjAddr: 0x76C0, symBinAddr: 0x100008A08, symSize: 0xC4 }
  - { offsetInCU: 0x13A97, offset: 0x1D21F, size: 0x8, addend: 0x0, symName: __ZNKSt3__117__compressed_pairImNS_9allocatorINS_12basic_stringIcNS_11char_traitsIcEENS1_IcEEEEEEE6secondB7v160006Ev, symObjAddr: 0x7784, symBinAddr: 0x100008ACC, symSize: 0x24 }
  - { offsetInCU: 0x13ABB, offset: 0x1D243, size: 0x8, addend: 0x0, symName: __ZNKSt3__122__compressed_pair_elemINS_9allocatorINS_12basic_stringIcNS_11char_traitsIcEENS1_IcEEEEEELi1ELb1EE5__getB7v160006Ev, symObjAddr: 0x77A8, symBinAddr: 0x100008AF0, symSize: 0x14 }
  - { offsetInCU: 0x13ADF, offset: 0x1D267, size: 0x8, addend: 0x0, symName: __ZNSt3__19allocatorIPNS_12basic_stringIcNS_11char_traitsIcEENS0_IcEEEEEC2B7v160006IS5_EERKNS0_IT_EE, symObjAddr: 0x77BC, symBinAddr: 0x100008B04, symSize: 0x30 }
  - { offsetInCU: 0x13B1A, offset: 0x1D2A2, size: 0x8, addend: 0x0, symName: __ZNSt3__114__split_bufferIPNS_12basic_stringIcNS_11char_traitsIcEENS_9allocatorIcEEEENS4_IS7_EEEC2ERKS8_, symObjAddr: 0x77EC, symBinAddr: 0x100008B34, symSize: 0x4C }
  - { offsetInCU: 0x13B53, offset: 0x1D2DB, size: 0x8, addend: 0x0, symName: __ZNSt3__117__compressed_pairIPPNS_12basic_stringIcNS_11char_traitsIcEENS_9allocatorIcEEEENS4_IS7_EEEC1B7v160006IDnRKS9_EEOT_OT0_, symObjAddr: 0x7838, symBinAddr: 0x100008B80, symSize: 0x3C }
  - { offsetInCU: 0x13BA9, offset: 0x1D331, size: 0x8, addend: 0x0, symName: __ZNSt3__117__compressed_pairIPPNS_12basic_stringIcNS_11char_traitsIcEENS_9allocatorIcEEEENS4_IS7_EEEC2B7v160006IDnRKS9_EEOT_OT0_, symObjAddr: 0x7874, symBinAddr: 0x100008BBC, symSize: 0x44 }
  - { offsetInCU: 0x13BFF, offset: 0x1D387, size: 0x8, addend: 0x0, symName: __ZNSt3__122__compressed_pair_elemINS_9allocatorIPNS_12basic_stringIcNS_11char_traitsIcEENS1_IcEEEEEELi1ELb1EEC2B7v160006IRKS8_vEEOT_, symObjAddr: 0x78B8, symBinAddr: 0x100008C00, symSize: 0x18 }
  - { offsetInCU: 0x13C40, offset: 0x1D3C8, size: 0x8, addend: 0x0, symName: __ZNSt3__117__compressed_pairImNS_9allocatorINS_12basic_stringIcNS_11char_traitsIcEENS1_IcEEEEEEEC2B7v160006IiRNS1_IPS6_EEEEOT_OT0_, symObjAddr: 0x78D0, symBinAddr: 0x100008C18, symSize: 0x44 }
  - { offsetInCU: 0x13C96, offset: 0x1D41E, size: 0x8, addend: 0x0, symName: __ZNSt3__122__compressed_pair_elemINS_9allocatorINS_12basic_stringIcNS_11char_traitsIcEENS1_IcEEEEEELi1ELb1EEC2B7v160006IRNS1_IPS6_EEvEEOT_, symObjAddr: 0x7914, symBinAddr: 0x100008C5C, symSize: 0x34 }
  - { offsetInCU: 0x13CD7, offset: 0x1D45F, size: 0x8, addend: 0x0, symName: __ZNSt3__19allocatorINS_12basic_stringIcNS_11char_traitsIcEENS0_IcEEEEEC2B7v160006IPS5_EERKNS0_IT_EE, symObjAddr: 0x7948, symBinAddr: 0x100008C90, symSize: 0x30 }
  - { offsetInCU: 0x13D12, offset: 0x1D49A, size: 0x8, addend: 0x0, symName: __ZNSt3__15dequeINS_12basic_stringIcNS_11char_traitsIcEENS_9allocatorIcEEEENS4_IS6_EEE19__add_back_capacityEm, symObjAddr: 0x79C4, symBinAddr: 0x100008D0C, symSize: 0x5C0 }
  - { offsetInCU: 0x13E15, offset: 0x1D59D, size: 0x8, addend: 0x0, symName: __ZNKSt3__116__deque_iteratorINS_12basic_stringIcNS_11char_traitsIcEENS_9allocatorIcEEEEPS6_RS6_PS7_lLl170EEplB7v160006El, symObjAddr: 0x7F84, symBinAddr: 0x1000092CC, symSize: 0x40 }
  - { offsetInCU: 0x13E7A, offset: 0x1D602, size: 0x8, addend: 0x0, symName: __ZNSt3__15dequeINS_12basic_stringIcNS_11char_traitsIcEENS_9allocatorIcEEEENS4_IS6_EEE13__deque_rangeC1B7v160006ENS_16__deque_iteratorIS6_PS6_RS6_PSB_lLl170EEESE_, symObjAddr: 0x7FC4, symBinAddr: 0x10000930C, symSize: 0x4C }
  - { offsetInCU: 0x13EC0, offset: 0x1D648, size: 0x8, addend: 0x0, symName: __ZNKSt3__15dequeINS_12basic_stringIcNS_11char_traitsIcEENS_9allocatorIcEEEENS4_IS6_EEE13__deque_range5beginB7v160006Ev, symObjAddr: 0x8010, symBinAddr: 0x100009358, symSize: 0x24 }
  - { offsetInCU: 0x13EE4, offset: 0x1D66C, size: 0x8, addend: 0x0, symName: __ZNKSt3__15dequeINS_12basic_stringIcNS_11char_traitsIcEENS_9allocatorIcEEEENS4_IS6_EEE13__deque_range3endB7v160006Ev, symObjAddr: 0x8034, symBinAddr: 0x10000937C, symSize: 0x50 }
  - { offsetInCU: 0x13F08, offset: 0x1D690, size: 0x8, addend: 0x0, symName: __ZNKSt3__15dequeINS_12basic_stringIcNS_11char_traitsIcEENS_9allocatorIcEEEENS4_IS6_EEE13__deque_rangedeB7v160006Ev, symObjAddr: 0x80B8, symBinAddr: 0x100009400, symSize: 0x7C }
  - { offsetInCU: 0x13F40, offset: 0x1D6C8, size: 0x8, addend: 0x0, symName: __ZNSt3__15dequeINS_12basic_stringIcNS_11char_traitsIcEENS_9allocatorIcEEEENS4_IS6_EEE21_ConstructTransactionC1B7v160006EPS8_RNS8_19__deque_block_rangeE, symObjAddr: 0x8134, symBinAddr: 0x10000947C, symSize: 0x3C }
  - { offsetInCU: 0x13F86, offset: 0x1D70E, size: 0x8, addend: 0x0, symName: __ZNKSt3__116__deque_iteratorINS_12basic_stringIcNS_11char_traitsIcEENS_9allocatorIcEEEEPKS6_RS7_PKS8_lLl170EEdeB7v160006Ev, symObjAddr: 0x8184, symBinAddr: 0x1000094CC, symSize: 0x18 }
  - { offsetInCU: 0x13FAA, offset: 0x1D732, size: 0x8, addend: 0x0, symName: __ZNSt3__116__deque_iteratorINS_12basic_stringIcNS_11char_traitsIcEENS_9allocatorIcEEEEPKS6_RS7_PKS8_lLl170EEppB7v160006Ev, symObjAddr: 0x819C, symBinAddr: 0x1000094E4, symSize: 0x70 }
  - { offsetInCU: 0x13FCE, offset: 0x1D756, size: 0x8, addend: 0x0, symName: __ZNSt3__15dequeINS_12basic_stringIcNS_11char_traitsIcEENS_9allocatorIcEEEENS4_IS6_EEE21_ConstructTransactionD1B7v160006Ev, symObjAddr: 0x820C, symBinAddr: 0x100009554, symSize: 0x2C }
  - { offsetInCU: 0x13FF6, offset: 0x1D77E, size: 0x8, addend: 0x0, symName: __ZNSt3__15dequeINS_12basic_stringIcNS_11char_traitsIcEENS_9allocatorIcEEEENS4_IS6_EEE13__deque_rangeppB7v160006Ev, symObjAddr: 0x8238, symBinAddr: 0x100009580, symSize: 0x64 }
  - { offsetInCU: 0x1401A, offset: 0x1D7A2, size: 0x8, addend: 0x0, symName: __ZNSt3__15dequeINS_12basic_stringIcNS_11char_traitsIcEENS_9allocatorIcEEEENS4_IS6_EEE18__recommend_blocksB7v160006Em, symObjAddr: 0x83E8, symBinAddr: 0x100009730, symSize: 0x40 }
  - { offsetInCU: 0x1403D, offset: 0x1D7C5, size: 0x8, addend: 0x0, symName: __ZNSt3__114__split_bufferIPNS_12basic_stringIcNS_11char_traitsIcEENS_9allocatorIcEEEERNS4_IS7_EEE5beginB7v160006Ev, symObjAddr: 0x8454, symBinAddr: 0x10000979C, symSize: 0x18 }
  - { offsetInCU: 0x14061, offset: 0x1D7E9, size: 0x8, addend: 0x0, symName: __ZNSt3__114__split_bufferIPNS_12basic_stringIcNS_11char_traitsIcEENS_9allocatorIcEEEERNS4_IS7_EEE3endB7v160006Ev, symObjAddr: 0x846C, symBinAddr: 0x1000097B4, symSize: 0x18 }
  - { offsetInCU: 0x14085, offset: 0x1D80D, size: 0x8, addend: 0x0, symName: __ZNSt3__114__split_bufferIPNS_12basic_stringIcNS_11char_traitsIcEENS_9allocatorIcEEEERNS4_IS7_EEE9push_backB7v160006ERKS7_, symObjAddr: 0x8484, symBinAddr: 0x1000097CC, symSize: 0x268 }
  - { offsetInCU: 0x140FC, offset: 0x1D884, size: 0x8, addend: 0x0, symName: __ZNSt3__116__deque_iteratorINS_12basic_stringIcNS_11char_traitsIcEENS_9allocatorIcEEEEPS6_RS6_PS7_lLl170EEpLB7v160006El, symObjAddr: 0x8740, symBinAddr: 0x100009A88, symSize: 0x120 }
  - { offsetInCU: 0x1414D, offset: 0x1D8D5, size: 0x8, addend: 0x0, symName: __ZNSt3__15dequeINS_12basic_stringIcNS_11char_traitsIcEENS_9allocatorIcEEEENS4_IS6_EEE13__deque_rangeC2B7v160006ENS_16__deque_iteratorIS6_PS6_RS6_PSB_lLl170EEESE_, symObjAddr: 0x8860, symBinAddr: 0x100009BA8, symSize: 0x34 }
  - { offsetInCU: 0x14193, offset: 0x1D91B, size: 0x8, addend: 0x0, symName: __ZNSt3__15dequeINS_12basic_stringIcNS_11char_traitsIcEENS_9allocatorIcEEEENS4_IS6_EEE19__deque_block_rangeC1B7v160006EPS6_SA_, symObjAddr: 0x88C4, symBinAddr: 0x100009C0C, symSize: 0x3C }
  - { offsetInCU: 0x141D9, offset: 0x1D961, size: 0x8, addend: 0x0, symName: __ZNSt3__15dequeINS_12basic_stringIcNS_11char_traitsIcEENS_9allocatorIcEEEENS4_IS6_EEE19__deque_block_rangeC2B7v160006EPS6_SA_, symObjAddr: 0x8900, symBinAddr: 0x100009C48, symSize: 0x2C }
  - { offsetInCU: 0x1421F, offset: 0x1D9A7, size: 0x8, addend: 0x0, symName: __ZNSt3__15dequeINS_12basic_stringIcNS_11char_traitsIcEENS_9allocatorIcEEEENS4_IS6_EEE21_ConstructTransactionC2B7v160006EPS8_RNS8_19__deque_block_rangeE, symObjAddr: 0x892C, symBinAddr: 0x100009C74, symSize: 0x48 }
  - { offsetInCU: 0x14265, offset: 0x1D9ED, size: 0x8, addend: 0x0, symName: __ZNSt3__15dequeINS_12basic_stringIcNS_11char_traitsIcEENS_9allocatorIcEEEENS4_IS6_EEE21_ConstructTransactionD2B7v160006Ev, symObjAddr: 0x8974, symBinAddr: 0x100009CBC, symSize: 0x5C }
  - { offsetInCU: 0x1428D, offset: 0x1DA15, size: 0x8, addend: 0x0, symName: __ZNKSt3__114__split_bufferIPNS_12basic_stringIcNS_11char_traitsIcEENS_9allocatorIcEEEENS4_IS7_EEE5beginB7v160006Ev, symObjAddr: 0x89D0, symBinAddr: 0x100009D18, symSize: 0x18 }
  - { offsetInCU: 0x142B1, offset: 0x1DA39, size: 0x8, addend: 0x0, symName: __ZNSt3__116__deque_iteratorINS_12basic_stringIcNS_11char_traitsIcEENS_9allocatorIcEEEEPKS6_RS7_PKS8_lLl170EEC1B7v160006ESB_S8_, symObjAddr: 0x89E8, symBinAddr: 0x100009D30, symSize: 0x3C }
  - { offsetInCU: 0x142F7, offset: 0x1DA7F, size: 0x8, addend: 0x0, symName: __ZNSt3__116__deque_iteratorINS_12basic_stringIcNS_11char_traitsIcEENS_9allocatorIcEEEEPKS6_RS7_PKS8_lLl170EEC2B7v160006ESB_S8_, symObjAddr: 0x8A24, symBinAddr: 0x100009D6C, symSize: 0x2C }
  - { offsetInCU: 0x1433D, offset: 0x1DAC5, size: 0x8, addend: 0x0, symName: __ZNKSt3__15dequeINS_12basic_stringIcNS_11char_traitsIcEENS_9allocatorIcEEEENS4_IS6_EEE5emptyB7v160006Ev, symObjAddr: 0x8A50, symBinAddr: 0x100009D98, symSize: 0x30 }
  - { offsetInCU: 0x14361, offset: 0x1DAE9, size: 0x8, addend: 0x0, symName: __ZNSt3__15dequeINS_12basic_stringIcNS_11char_traitsIcEENS_9allocatorIcEEEENS4_IS6_EEE4backEv, symObjAddr: 0x8A80, symBinAddr: 0x100009DC8, symSize: 0x70 }
  - { offsetInCU: 0x14396, offset: 0x1DB1E, size: 0x8, addend: 0x0, symName: __ZNSt3__15dequeINS_12basic_stringIcNS_11char_traitsIcEENS_9allocatorIcEEEENS4_IS6_EEE8pop_backEv, symObjAddr: 0x8AF0, symBinAddr: 0x100009E38, symSize: 0xC0 }
  - { offsetInCU: 0x143DA, offset: 0x1DB62, size: 0x8, addend: 0x0, symName: __ZNSt3__15dequeINS_12basic_stringIcNS_11char_traitsIcEENS_9allocatorIcEEEENS4_IS6_EEE25__maybe_remove_back_spareB7v160006Eb, symObjAddr: 0x8BB0, symBinAddr: 0x100009EF8, symSize: 0xCC }
  - { offsetInCU: 0x1440D, offset: 0x1DB95, size: 0x8, addend: 0x0, symName: __ZNKSt3__15dequeINS_12basic_stringIcNS_11char_traitsIcEENS_9allocatorIcEEEENS4_IS6_EEE19__back_spare_blocksB7v160006Ev, symObjAddr: 0x8C7C, symBinAddr: 0x100009FC4, symSize: 0x2C }
  - { offsetInCU: 0x14431, offset: 0x1DBB9, size: 0x8, addend: 0x0, symName: __ZNSt3__114__split_bufferIPNS_12basic_stringIcNS_11char_traitsIcEENS_9allocatorIcEEEENS4_IS7_EEE4backB7v160006Ev, symObjAddr: 0x8CA8, symBinAddr: 0x100009FF0, symSize: 0x1C }
  - { offsetInCU: 0x14455, offset: 0x1DBDD, size: 0x8, addend: 0x0, symName: __ZNSt3__114__split_bufferIPNS_12basic_stringIcNS_11char_traitsIcEENS_9allocatorIcEEEENS4_IS7_EEE8pop_backB7v160006Ev, symObjAddr: 0x8CC4, symBinAddr: 0x10000A00C, symSize: 0x2C }
  - { offsetInCU: 0x14479, offset: 0x1DC01, size: 0x8, addend: 0x0, symName: __ZNSt3__15stackIdNS_5dequeIdNS_9allocatorIdEEEEEC2B7v160006Ev, symObjAddr: 0x8CF0, symBinAddr: 0x10000A038, symSize: 0x2C }
  - { offsetInCU: 0x144A1, offset: 0x1DC29, size: 0x8, addend: 0x0, symName: __ZNSt3__15dequeIdNS_9allocatorIdEEEC1B7v160006Ev, symObjAddr: 0x8D1C, symBinAddr: 0x10000A064, symSize: 0x2C }
  - { offsetInCU: 0x144C9, offset: 0x1DC51, size: 0x8, addend: 0x0, symName: __ZNSt3__15dequeIdNS_9allocatorIdEEEC2B7v160006Ev, symObjAddr: 0x8D48, symBinAddr: 0x10000A090, symSize: 0x78 }
  - { offsetInCU: 0x144F1, offset: 0x1DC79, size: 0x8, addend: 0x0, symName: __ZNSt3__114__split_bufferIPdNS_9allocatorIS1_EEEC1Ev, symObjAddr: 0x8DC0, symBinAddr: 0x10000A108, symSize: 0x2C }
  - { offsetInCU: 0x1451C, offset: 0x1DCA4, size: 0x8, addend: 0x0, symName: __ZNSt3__117__compressed_pairImNS_9allocatorIdEEEC1B7v160006IiNS_18__default_init_tagEEEOT_OT0_, symObjAddr: 0x8DEC, symBinAddr: 0x10000A134, symSize: 0x3C }
  - { offsetInCU: 0x14572, offset: 0x1DCFA, size: 0x8, addend: 0x0, symName: __ZNSt3__114__split_bufferIPdNS_9allocatorIS1_EEEC2Ev, symObjAddr: 0x8E28, symBinAddr: 0x10000A170, symSize: 0x48 }
  - { offsetInCU: 0x1459D, offset: 0x1DD25, size: 0x8, addend: 0x0, symName: __ZNSt3__117__compressed_pairIPPdNS_9allocatorIS1_EEEC1B7v160006IDnNS_18__default_init_tagEEEOT_OT0_, symObjAddr: 0x8E70, symBinAddr: 0x10000A1B8, symSize: 0x3C }
  - { offsetInCU: 0x145F3, offset: 0x1DD7B, size: 0x8, addend: 0x0, symName: __ZNSt3__117__compressed_pairIPPdNS_9allocatorIS1_EEEC2B7v160006IDnNS_18__default_init_tagEEEOT_OT0_, symObjAddr: 0x8EAC, symBinAddr: 0x10000A1F4, symSize: 0x40 }
  - { offsetInCU: 0x14649, offset: 0x1DDD1, size: 0x8, addend: 0x0, symName: __ZNSt3__122__compressed_pair_elemIPPdLi0ELb0EEC2B7v160006IDnvEEOT_, symObjAddr: 0x8EEC, symBinAddr: 0x10000A234, symSize: 0x1C }
  - { offsetInCU: 0x1468A, offset: 0x1DE12, size: 0x8, addend: 0x0, symName: __ZNSt3__122__compressed_pair_elemINS_9allocatorIPdEELi1ELb1EEC2B7v160006ENS_18__default_init_tagE, symObjAddr: 0x8F08, symBinAddr: 0x10000A250, symSize: 0x2C }
  - { offsetInCU: 0x146BC, offset: 0x1DE44, size: 0x8, addend: 0x0, symName: __ZNSt3__19allocatorIPdEC2B7v160006Ev, symObjAddr: 0x8F34, symBinAddr: 0x10000A27C, symSize: 0x2C }
  - { offsetInCU: 0x146E4, offset: 0x1DE6C, size: 0x8, addend: 0x0, symName: __ZNSt3__116__non_trivial_ifILb1ENS_9allocatorIPdEEEC2B7v160006Ev, symObjAddr: 0x8F60, symBinAddr: 0x10000A2A8, symSize: 0x14 }
  - { offsetInCU: 0x1470C, offset: 0x1DE94, size: 0x8, addend: 0x0, symName: __ZNSt3__117__compressed_pairImNS_9allocatorIdEEEC2B7v160006IiNS_18__default_init_tagEEEOT_OT0_, symObjAddr: 0x8F74, symBinAddr: 0x10000A2BC, symSize: 0x40 }
  - { offsetInCU: 0x14762, offset: 0x1DEEA, size: 0x8, addend: 0x0, symName: __ZNSt3__122__compressed_pair_elemINS_9allocatorIdEELi1ELb1EEC2B7v160006ENS_18__default_init_tagE, symObjAddr: 0x8FB4, symBinAddr: 0x10000A2FC, symSize: 0x2C }
  - { offsetInCU: 0x14794, offset: 0x1DF1C, size: 0x8, addend: 0x0, symName: __ZNSt3__19allocatorIdEC2B7v160006Ev, symObjAddr: 0x8FE0, symBinAddr: 0x10000A328, symSize: 0x2C }
  - { offsetInCU: 0x147BC, offset: 0x1DF44, size: 0x8, addend: 0x0, symName: __ZNSt3__116__non_trivial_ifILb1ENS_9allocatorIdEEEC2B7v160006Ev, symObjAddr: 0x900C, symBinAddr: 0x10000A354, symSize: 0x14 }
  - { offsetInCU: 0x14807, offset: 0x1DF8F, size: 0x8, addend: 0x0, symName: __ZNSt3__15dequeIdNS_9allocatorIdEEE4backEv, symObjAddr: 0x98A8, symBinAddr: 0x10000A368, symSize: 0x68 }
  - { offsetInCU: 0x1483C, offset: 0x1DFC4, size: 0x8, addend: 0x0, symName: __ZNSt3__15dequeIdNS_9allocatorIdEEE8pop_backEv, symObjAddr: 0x9910, symBinAddr: 0x10000A3D0, symSize: 0xB8 }
  - { offsetInCU: 0x14880, offset: 0x1E008, size: 0x8, addend: 0x0, symName: __ZNSt3__15dequeIdNS_9allocatorIdEEE25__maybe_remove_back_spareB7v160006Eb, symObjAddr: 0x99DC, symBinAddr: 0x10000A49C, symSize: 0xCC }
  - { offsetInCU: 0x148B3, offset: 0x1E03B, size: 0x8, addend: 0x0, symName: __ZNKSt3__15dequeIdNS_9allocatorIdEEE19__back_spare_blocksB7v160006Ev, symObjAddr: 0x9AA8, symBinAddr: 0x10000A568, symSize: 0x2C }
  - { offsetInCU: 0x148D7, offset: 0x1E05F, size: 0x8, addend: 0x0, symName: __ZNSt3__114__split_bufferIPdNS_9allocatorIS1_EEE4backB7v160006Ev, symObjAddr: 0x9AD4, symBinAddr: 0x10000A594, symSize: 0x1C }
  - { offsetInCU: 0x148FB, offset: 0x1E083, size: 0x8, addend: 0x0, symName: __ZNSt3__114__split_bufferIPdNS_9allocatorIS1_EEE8pop_backB7v160006Ev, symObjAddr: 0x9AF0, symBinAddr: 0x10000A5B0, symSize: 0x2C }
  - { offsetInCU: 0x1491F, offset: 0x1E0A7, size: 0x8, addend: 0x0, symName: __ZNKSt3__15dequeIdNS_9allocatorIdEEE12__back_spareB7v160006Ev, symObjAddr: 0x9B1C, symBinAddr: 0x10000A5DC, symSize: 0x54 }
  - { offsetInCU: 0x14943, offset: 0x1E0CB, size: 0x8, addend: 0x0, symName: __ZNKSt3__15dequeIdNS_9allocatorIdEEE10__capacityB7v160006Ev, symObjAddr: 0x9B70, symBinAddr: 0x10000A630, symSize: 0x60 }
  - { offsetInCU: 0x14967, offset: 0x1E0EF, size: 0x8, addend: 0x0, symName: __ZNSt3__15dequeIdNS_9allocatorIdEEE9push_backERKd, symObjAddr: 0x9BD0, symBinAddr: 0x10000A690, symSize: 0xA0 }
  - { offsetInCU: 0x149AB, offset: 0x1E133, size: 0x8, addend: 0x0, symName: __ZNSt3__15dequeIdNS_9allocatorIdEEE19__add_back_capacityEv, symObjAddr: 0x9C70, symBinAddr: 0x10000A730, symSize: 0x32C }
  - { offsetInCU: 0x14A61, offset: 0x1E1E9, size: 0x8, addend: 0x0, symName: __ZNSt3__116allocator_traitsINS_9allocatorIdEEE9constructB7v160006IdJRKdEvEEvRS2_PT_DpOT0_, symObjAddr: 0x9F9C, symBinAddr: 0x10000AA5C, symSize: 0x34 }
  - { offsetInCU: 0x14AB9, offset: 0x1E241, size: 0x8, addend: 0x0, symName: __ZNKSt3__15dequeIdNS_9allocatorIdEEE13__front_spareB7v160006Ev, symObjAddr: 0x9FD0, symBinAddr: 0x10000AA90, symSize: 0x18 }
  - { offsetInCU: 0x14ADD, offset: 0x1E265, size: 0x8, addend: 0x0, symName: __ZNSt3__114__split_bufferIPdNS_9allocatorIS1_EEE9push_backB7v160006ERKS1_, symObjAddr: 0x9FE8, symBinAddr: 0x10000AAA8, symSize: 0x270 }
  - { offsetInCU: 0x14B54, offset: 0x1E2DC, size: 0x8, addend: 0x0, symName: __ZNKSt3__114__split_bufferIPdNS_9allocatorIS1_EEE12__back_spareB7v160006Ev, symObjAddr: 0xA258, symBinAddr: 0x10000AD18, symSize: 0x40 }
  - { offsetInCU: 0x14B78, offset: 0x1E300, size: 0x8, addend: 0x0, symName: __ZNSt3__114__split_bufferIPdNS_9allocatorIS1_EEE9push_backEOS1_, symObjAddr: 0xA298, symBinAddr: 0x10000AD58, symSize: 0x270 }
  - { offsetInCU: 0x14BEF, offset: 0x1E377, size: 0x8, addend: 0x0, symName: __ZNSt3__116allocator_traitsINS_9allocatorIdEEE8allocateB7v160006ERS2_m, symObjAddr: 0xA508, symBinAddr: 0x10000AFC8, symSize: 0x2C }
  - { offsetInCU: 0x14C21, offset: 0x1E3A9, size: 0x8, addend: 0x0, symName: __ZNSt3__114__split_bufferIPdNS_9allocatorIS1_EEE10push_frontEOS1_, symObjAddr: 0xA534, symBinAddr: 0x10000AFF4, symSize: 0x26C }
  - { offsetInCU: 0x14C98, offset: 0x1E420, size: 0x8, addend: 0x0, symName: __ZNSt3__114__split_bufferIPdRNS_9allocatorIS1_EEEC1EmmS4_, symObjAddr: 0xA7A0, symBinAddr: 0x10000B260, symSize: 0x44 }
  - { offsetInCU: 0x14CF2, offset: 0x1E47A, size: 0x8, addend: 0x0, symName: __ZNSt3__122__allocator_destructorINS_9allocatorIdEEEC1B7v160006ERS2_m, symObjAddr: 0xA7E4, symBinAddr: 0x10000B2A4, symSize: 0x3C }
  - { offsetInCU: 0x14DB8, offset: 0x1E540, size: 0x8, addend: 0x0, symName: __ZNSt3__110unique_ptrIPdNS_22__allocator_destructorINS_9allocatorIdEEEEEC1B7v160006ILb1EvEES1_NS_16__dependent_typeINS_27__unique_ptr_deleter_sfinaeIS5_EEXT_EE20__good_rval_ref_typeE, symObjAddr: 0xA820, symBinAddr: 0x10000B2E0, symSize: 0x3C }
  - { offsetInCU: 0x14E08, offset: 0x1E590, size: 0x8, addend: 0x0, symName: __ZNSt3__114__split_bufferIPdRNS_9allocatorIS1_EEE9push_backEOS1_, symObjAddr: 0xA85C, symBinAddr: 0x10000B31C, symSize: 0x270 }
  - { offsetInCU: 0x14E7F, offset: 0x1E607, size: 0x8, addend: 0x0, symName: __ZNKSt3__110unique_ptrIPdNS_22__allocator_destructorINS_9allocatorIdEEEEE3getB7v160006Ev, symObjAddr: 0xAACC, symBinAddr: 0x10000B58C, symSize: 0x28 }
  - { offsetInCU: 0x14EA3, offset: 0x1E62B, size: 0x8, addend: 0x0, symName: __ZNSt3__110unique_ptrIPdNS_22__allocator_destructorINS_9allocatorIdEEEEE7releaseB7v160006Ev, symObjAddr: 0xAAF4, symBinAddr: 0x10000B5B4, symSize: 0x44 }
  - { offsetInCU: 0x14ED6, offset: 0x1E65E, size: 0x8, addend: 0x0, symName: __ZNSt3__114__split_bufferIPdRNS_9allocatorIS1_EEE10push_frontERKS1_, symObjAddr: 0xAB38, symBinAddr: 0x10000B5F8, symSize: 0x26C }
  - { offsetInCU: 0x14F4D, offset: 0x1E6D5, size: 0x8, addend: 0x0, symName: __ZNSt3__114__split_bufferIPdNS_9allocatorIS1_EEE9__end_capB7v160006Ev, symObjAddr: 0xADE0, symBinAddr: 0x10000B8A0, symSize: 0x28 }
  - { offsetInCU: 0x14F71, offset: 0x1E6F9, size: 0x8, addend: 0x0, symName: __ZNSt3__114__split_bufferIPdRNS_9allocatorIS1_EEE9__end_capB7v160006Ev, symObjAddr: 0xAE08, symBinAddr: 0x10000B8C8, symSize: 0x28 }
  - { offsetInCU: 0x14F95, offset: 0x1E71D, size: 0x8, addend: 0x0, symName: __ZNSt3__110unique_ptrIPdNS_22__allocator_destructorINS_9allocatorIdEEEEED1B7v160006Ev, symObjAddr: 0xAE30, symBinAddr: 0x10000B8F0, symSize: 0x2C }
  - { offsetInCU: 0x14FBD, offset: 0x1E745, size: 0x8, addend: 0x0, symName: __ZNSt3__114__split_bufferIPdRNS_9allocatorIS1_EEED1Ev, symObjAddr: 0xAE5C, symBinAddr: 0x10000B91C, symSize: 0x2C }
  - { offsetInCU: 0x14FE8, offset: 0x1E770, size: 0x8, addend: 0x0, symName: __ZNSt3__114__split_bufferIPdRNS_9allocatorIS1_EEE18__construct_at_endINS_13move_iteratorIPS1_EEEENS_9enable_ifIXsr27__is_cpp17_forward_iteratorIT_EE5valueEvE4typeESB_SB_, symObjAddr: 0xAEC8, symBinAddr: 0x10000B988, symSize: 0x104 }
  - { offsetInCU: 0x15042, offset: 0x1E7CA, size: 0x8, addend: 0x0, symName: __ZNSt3__113move_iteratorIPPdEC1B7v160006ES2_, symObjAddr: 0xAFCC, symBinAddr: 0x10000BA8C, symSize: 0x34 }
  - { offsetInCU: 0x15078, offset: 0x1E800, size: 0x8, addend: 0x0, symName: __ZNSt3__116allocator_traitsINS_9allocatorIPdEEE9constructB7v160006IS2_JRKS2_EvEEvRS3_PT_DpOT0_, symObjAddr: 0xB000, symBinAddr: 0x10000BAC0, symSize: 0x34 }
  - { offsetInCU: 0x150E9, offset: 0x1E871, size: 0x8, addend: 0x0, symName: __ZNKSt3__114__move_trivialclB7v160006IPdS2_Li0EEENS_4pairIPT_PT0_EES5_S5_S7_, symObjAddr: 0xB1E0, symBinAddr: 0x10000BCA0, symSize: 0x48 }
  - { offsetInCU: 0x15150, offset: 0x1E8D8, size: 0x8, addend: 0x0, symName: __ZNSt3__14pairIPPdS2_EC1B7v160006ERKS2_S5_, symObjAddr: 0xB3BC, symBinAddr: 0x10000BE7C, symSize: 0x3C }
  - { offsetInCU: 0x15194, offset: 0x1E91C, size: 0x8, addend: 0x0, symName: __ZNSt3__14pairIPPdS2_EC2B7v160006ERKS2_S5_, symObjAddr: 0xB3F8, symBinAddr: 0x10000BEB8, symSize: 0x34 }
  - { offsetInCU: 0x151D8, offset: 0x1E960, size: 0x8, addend: 0x0, symName: __ZNSt3__118__unwrap_iter_implIPPdLb1EE8__unwrapB7v160006ES2_, symObjAddr: 0xB42C, symBinAddr: 0x10000BEEC, symSize: 0x24 }
  - { offsetInCU: 0x151FA, offset: 0x1E982, size: 0x8, addend: 0x0, symName: __ZNSt3__118__unwrap_iter_implIPPdLb1EE8__rewrapB7v160006ES2_S2_, symObjAddr: 0xB450, symBinAddr: 0x10000BF10, symSize: 0x50 }
  - { offsetInCU: 0x15234, offset: 0x1E9BC, size: 0x8, addend: 0x0, symName: __ZNSt3__114__split_bufferIPdRNS_9allocatorIS1_EEE21_ConstructTransactionC1B7v160006EPPS1_m, symObjAddr: 0xB4DC, symBinAddr: 0x10000BF9C, symSize: 0x3C }
  - { offsetInCU: 0x15278, offset: 0x1EA00, size: 0x8, addend: 0x0, symName: __ZNSt3__116allocator_traitsINS_9allocatorIPdEEE9constructB7v160006IS2_JS2_EvEEvRS3_PT_DpOT0_, symObjAddr: 0xB518, symBinAddr: 0x10000BFD8, symSize: 0x34 }
  - { offsetInCU: 0x152D0, offset: 0x1EA58, size: 0x8, addend: 0x0, symName: __ZNSt3__114__split_bufferIPdRNS_9allocatorIS1_EEE7__allocB7v160006Ev, symObjAddr: 0xB54C, symBinAddr: 0x10000C00C, symSize: 0x28 }
  - { offsetInCU: 0x152F4, offset: 0x1EA7C, size: 0x8, addend: 0x0, symName: __ZNKSt3__113move_iteratorIPPdEdeB7v160006Ev, symObjAddr: 0xB574, symBinAddr: 0x10000C034, symSize: 0x18 }
  - { offsetInCU: 0x15318, offset: 0x1EAA0, size: 0x8, addend: 0x0, symName: __ZNSt3__113move_iteratorIPPdEppB7v160006Ev, symObjAddr: 0xB58C, symBinAddr: 0x10000C04C, symSize: 0x20 }
  - { offsetInCU: 0x1533C, offset: 0x1EAC4, size: 0x8, addend: 0x0, symName: __ZNSt3__114__split_bufferIPdRNS_9allocatorIS1_EEE21_ConstructTransactionD1B7v160006Ev, symObjAddr: 0xB5AC, symBinAddr: 0x10000C06C, symSize: 0x2C }
  - { offsetInCU: 0x15364, offset: 0x1EAEC, size: 0x8, addend: 0x0, symName: __ZNKSt3__113move_iteratorIPPdE4baseB7v160006Ev, symObjAddr: 0xB650, symBinAddr: 0x10000C110, symSize: 0x18 }
  - { offsetInCU: 0x15388, offset: 0x1EB10, size: 0x8, addend: 0x0, symName: __ZNSt3__114__split_bufferIPdRNS_9allocatorIS1_EEE21_ConstructTransactionC2B7v160006EPPS1_m, symObjAddr: 0xB668, symBinAddr: 0x10000C128, symSize: 0x44 }
  - { offsetInCU: 0x153CC, offset: 0x1EB54, size: 0x8, addend: 0x0, symName: __ZNSt3__19allocatorIPdE9constructB7v160006IS1_JS1_EEEvPT_DpOT0_, symObjAddr: 0xB6AC, symBinAddr: 0x10000C16C, symSize: 0x28 }
  - { offsetInCU: 0x15421, offset: 0x1EBA9, size: 0x8, addend: 0x0, symName: __ZNSt3__117__compressed_pairIPPdRNS_9allocatorIS1_EEE6secondB7v160006Ev, symObjAddr: 0xB6D4, symBinAddr: 0x10000C194, symSize: 0x28 }
  - { offsetInCU: 0x15445, offset: 0x1EBCD, size: 0x8, addend: 0x0, symName: __ZNSt3__122__compressed_pair_elemIRNS_9allocatorIPdEELi1ELb0EE5__getB7v160006Ev, symObjAddr: 0xB6FC, symBinAddr: 0x10000C1BC, symSize: 0x18 }
  - { offsetInCU: 0x15469, offset: 0x1EBF1, size: 0x8, addend: 0x0, symName: __ZNSt3__114__split_bufferIPdRNS_9allocatorIS1_EEE21_ConstructTransactionD2B7v160006Ev, symObjAddr: 0xB714, symBinAddr: 0x10000C1D4, symSize: 0x20 }
  - { offsetInCU: 0x15491, offset: 0x1EC19, size: 0x8, addend: 0x0, symName: __ZNSt3__113move_iteratorIPPdEC2B7v160006ES2_, symObjAddr: 0xB734, symBinAddr: 0x10000C1F4, symSize: 0x20 }
  - { offsetInCU: 0x154C7, offset: 0x1EC4F, size: 0x8, addend: 0x0, symName: __ZNSt3__19allocatorIPdE9constructB7v160006IS1_JRKS1_EEEvPT_DpOT0_, symObjAddr: 0xB754, symBinAddr: 0x10000C214, symSize: 0x28 }
  - { offsetInCU: 0x1551C, offset: 0x1ECA4, size: 0x8, addend: 0x0, symName: __ZNSt3__19allocatorIdE8allocateB7v160006Em, symObjAddr: 0xB77C, symBinAddr: 0x10000C23C, symSize: 0x84 }
  - { offsetInCU: 0x15558, offset: 0x1ECE0, size: 0x8, addend: 0x0, symName: __ZNSt3__116allocator_traitsINS_9allocatorIdEEE8max_sizeB7v160006IS2_vEEmRKS2_, symObjAddr: 0xB800, symBinAddr: 0x10000C2C0, symSize: 0x24 }
  - { offsetInCU: 0x15586, offset: 0x1ED0E, size: 0x8, addend: 0x0, symName: __ZNKSt3__19allocatorIdE8max_sizeB7v160006Ev, symObjAddr: 0xB824, symBinAddr: 0x10000C2E4, symSize: 0x14 }
  - { offsetInCU: 0x155AA, offset: 0x1ED32, size: 0x8, addend: 0x0, symName: __ZNKSt3__123__move_backward_trivialclB7v160006IPdS2_Li0EEENS_4pairIPT_PT0_EES5_S5_S7_, symObjAddr: 0xB9C4, symBinAddr: 0x10000C484, symSize: 0x48 }
  - { offsetInCU: 0x15611, offset: 0x1ED99, size: 0x8, addend: 0x0, symName: __ZNSt3__114__split_bufferIPdRNS_9allocatorIS1_EEEC2EmmS4_, symObjAddr: 0xBAD8, symBinAddr: 0x10000C598, symSize: 0xD4 }
  - { offsetInCU: 0x15684, offset: 0x1EE0C, size: 0x8, addend: 0x0, symName: __ZNSt3__117__compressed_pairIPPdRNS_9allocatorIS1_EEEC1B7v160006IDnS5_EEOT_OT0_, symObjAddr: 0xBBAC, symBinAddr: 0x10000C66C, symSize: 0x3C }
  - { offsetInCU: 0x156DA, offset: 0x1EE62, size: 0x8, addend: 0x0, symName: __ZNSt3__117__compressed_pairIPPdRNS_9allocatorIS1_EEEC2B7v160006IDnS5_EEOT_OT0_, symObjAddr: 0xBC28, symBinAddr: 0x10000C6E8, symSize: 0x48 }
  - { offsetInCU: 0x15730, offset: 0x1EEB8, size: 0x8, addend: 0x0, symName: __ZNSt3__122__compressed_pair_elemIRNS_9allocatorIPdEELi1ELb0EEC2B7v160006IS4_vEEOT_, symObjAddr: 0xBC70, symBinAddr: 0x10000C730, symSize: 0x20 }
  - { offsetInCU: 0x15771, offset: 0x1EEF9, size: 0x8, addend: 0x0, symName: __ZNSt3__19allocatorIPdE8allocateB7v160006Em, symObjAddr: 0xBC90, symBinAddr: 0x10000C750, symSize: 0x84 }
  - { offsetInCU: 0x157AD, offset: 0x1EF35, size: 0x8, addend: 0x0, symName: __ZNSt3__116allocator_traitsINS_9allocatorIPdEEE8max_sizeB7v160006IS3_vEEmRKS3_, symObjAddr: 0xBD14, symBinAddr: 0x10000C7D4, symSize: 0x24 }
  - { offsetInCU: 0x157DB, offset: 0x1EF63, size: 0x8, addend: 0x0, symName: __ZNKSt3__19allocatorIPdE8max_sizeB7v160006Ev, symObjAddr: 0xBD38, symBinAddr: 0x10000C7F8, symSize: 0x14 }
  - { offsetInCU: 0x157FF, offset: 0x1EF87, size: 0x8, addend: 0x0, symName: __ZNSt3__122__allocator_destructorINS_9allocatorIdEEEC2B7v160006ERS2_m, symObjAddr: 0xBD4C, symBinAddr: 0x10000C80C, symSize: 0x2C }
  - { offsetInCU: 0x15843, offset: 0x1EFCB, size: 0x8, addend: 0x0, symName: __ZNSt3__110unique_ptrIPdNS_22__allocator_destructorINS_9allocatorIdEEEEEC2B7v160006ILb1EvEES1_NS_16__dependent_typeINS_27__unique_ptr_deleter_sfinaeIS5_EEXT_EE20__good_rval_ref_typeE, symObjAddr: 0xBD78, symBinAddr: 0x10000C838, symSize: 0x5C }
  - { offsetInCU: 0x15893, offset: 0x1F01B, size: 0x8, addend: 0x0, symName: __ZNSt3__117__compressed_pairIPdNS_22__allocator_destructorINS_9allocatorIdEEEEEC1B7v160006IRS1_S5_EEOT_OT0_, symObjAddr: 0xBDD4, symBinAddr: 0x10000C894, symSize: 0x3C }
  - { offsetInCU: 0x158E9, offset: 0x1F071, size: 0x8, addend: 0x0, symName: __ZNSt3__117__compressed_pairIPdNS_22__allocator_destructorINS_9allocatorIdEEEEEC2B7v160006IRS1_S5_EEOT_OT0_, symObjAddr: 0xBE10, symBinAddr: 0x10000C8D0, symSize: 0x48 }
  - { offsetInCU: 0x1593F, offset: 0x1F0C7, size: 0x8, addend: 0x0, symName: __ZNSt3__122__compressed_pair_elemIPdLi0ELb0EEC2B7v160006IRS1_vEEOT_, symObjAddr: 0xBE58, symBinAddr: 0x10000C918, symSize: 0x24 }
  - { offsetInCU: 0x15980, offset: 0x1F108, size: 0x8, addend: 0x0, symName: __ZNSt3__122__compressed_pair_elemINS_22__allocator_destructorINS_9allocatorIdEEEELi1ELb0EEC2B7v160006IS4_vEEOT_, symObjAddr: 0xBE7C, symBinAddr: 0x10000C93C, symSize: 0x24 }
  - { offsetInCU: 0x159C1, offset: 0x1F149, size: 0x8, addend: 0x0, symName: __ZNKSt3__117__compressed_pairIPdNS_22__allocator_destructorINS_9allocatorIdEEEEE5firstB7v160006Ev, symObjAddr: 0xBEA0, symBinAddr: 0x10000C960, symSize: 0x24 }
  - { offsetInCU: 0x159E5, offset: 0x1F16D, size: 0x8, addend: 0x0, symName: __ZNKSt3__122__compressed_pair_elemIPdLi0ELb0EE5__getB7v160006Ev, symObjAddr: 0xBEC4, symBinAddr: 0x10000C984, symSize: 0x14 }
  - { offsetInCU: 0x15A09, offset: 0x1F191, size: 0x8, addend: 0x0, symName: __ZNSt3__117__compressed_pairIPdNS_22__allocator_destructorINS_9allocatorIdEEEEE5firstB7v160006Ev, symObjAddr: 0xBED8, symBinAddr: 0x10000C998, symSize: 0x24 }
  - { offsetInCU: 0x15A2D, offset: 0x1F1B5, size: 0x8, addend: 0x0, symName: __ZNSt3__122__compressed_pair_elemIPdLi0ELb0EE5__getB7v160006Ev, symObjAddr: 0xBEFC, symBinAddr: 0x10000C9BC, symSize: 0x14 }
  - { offsetInCU: 0x15A51, offset: 0x1F1D9, size: 0x8, addend: 0x0, symName: __ZNSt3__117__compressed_pairIPPdNS_9allocatorIS1_EEE5firstB7v160006Ev, symObjAddr: 0xBF10, symBinAddr: 0x10000C9D0, symSize: 0x24 }
  - { offsetInCU: 0x15A75, offset: 0x1F1FD, size: 0x8, addend: 0x0, symName: __ZNSt3__122__compressed_pair_elemIPPdLi0ELb0EE5__getB7v160006Ev, symObjAddr: 0xBF34, symBinAddr: 0x10000C9F4, symSize: 0x14 }
  - { offsetInCU: 0x15A99, offset: 0x1F221, size: 0x8, addend: 0x0, symName: __ZNSt3__117__compressed_pairIPPdRNS_9allocatorIS1_EEE5firstB7v160006Ev, symObjAddr: 0xBF48, symBinAddr: 0x10000CA08, symSize: 0x24 }
  - { offsetInCU: 0x15ABD, offset: 0x1F245, size: 0x8, addend: 0x0, symName: __ZNSt3__110unique_ptrIPdNS_22__allocator_destructorINS_9allocatorIdEEEEED2B7v160006Ev, symObjAddr: 0xBF6C, symBinAddr: 0x10000CA2C, symSize: 0x30 }
  - { offsetInCU: 0x15AE5, offset: 0x1F26D, size: 0x8, addend: 0x0, symName: __ZNSt3__110unique_ptrIPdNS_22__allocator_destructorINS_9allocatorIdEEEEE5resetB7v160006ES1_, symObjAddr: 0xBF9C, symBinAddr: 0x10000CA5C, symSize: 0x78 }
  - { offsetInCU: 0x15B27, offset: 0x1F2AF, size: 0x8, addend: 0x0, symName: __ZNSt3__117__compressed_pairIPdNS_22__allocator_destructorINS_9allocatorIdEEEEE6secondB7v160006Ev, symObjAddr: 0xC014, symBinAddr: 0x10000CAD4, symSize: 0x28 }
  - { offsetInCU: 0x15B4B, offset: 0x1F2D3, size: 0x8, addend: 0x0, symName: __ZNSt3__122__allocator_destructorINS_9allocatorIdEEEclB7v160006EPd, symObjAddr: 0xC03C, symBinAddr: 0x10000CAFC, symSize: 0x34 }
  - { offsetInCU: 0x15B7D, offset: 0x1F305, size: 0x8, addend: 0x0, symName: __ZNSt3__122__compressed_pair_elemINS_22__allocator_destructorINS_9allocatorIdEEEELi1ELb0EE5__getB7v160006Ev, symObjAddr: 0xC070, symBinAddr: 0x10000CB30, symSize: 0x14 }
  - { offsetInCU: 0x15BA1, offset: 0x1F329, size: 0x8, addend: 0x0, symName: __ZNSt3__114__split_bufferIPdRNS_9allocatorIS1_EEED2Ev, symObjAddr: 0xC084, symBinAddr: 0x10000CB44, symSize: 0x80 }
  - { offsetInCU: 0x15BCC, offset: 0x1F354, size: 0x8, addend: 0x0, symName: __ZNSt3__114__split_bufferIPdRNS_9allocatorIS1_EEE5clearB7v160006Ev, symObjAddr: 0xC104, symBinAddr: 0x10000CBC4, symSize: 0x28 }
  - { offsetInCU: 0x15BF0, offset: 0x1F378, size: 0x8, addend: 0x0, symName: __ZNKSt3__114__split_bufferIPdRNS_9allocatorIS1_EEE8capacityB7v160006Ev, symObjAddr: 0xC12C, symBinAddr: 0x10000CBEC, symSize: 0x40 }
  - { offsetInCU: 0x15C14, offset: 0x1F39C, size: 0x8, addend: 0x0, symName: __ZNSt3__114__split_bufferIPdRNS_9allocatorIS1_EEE17__destruct_at_endB7v160006EPS1_, symObjAddr: 0xC16C, symBinAddr: 0x10000CC2C, symSize: 0x2C }
  - { offsetInCU: 0x15C46, offset: 0x1F3CE, size: 0x8, addend: 0x0, symName: __ZNSt3__114__split_bufferIPdRNS_9allocatorIS1_EEE17__destruct_at_endB7v160006EPS1_NS_17integral_constantIbLb0EEE, symObjAddr: 0xC198, symBinAddr: 0x10000CC58, symSize: 0x94 }
  - { offsetInCU: 0x15C84, offset: 0x1F40C, size: 0x8, addend: 0x0, symName: __ZNKSt3__114__split_bufferIPdRNS_9allocatorIS1_EEE9__end_capB7v160006Ev, symObjAddr: 0xC22C, symBinAddr: 0x10000CCEC, symSize: 0x28 }
  - { offsetInCU: 0x15CA8, offset: 0x1F430, size: 0x8, addend: 0x0, symName: __ZNKSt3__117__compressed_pairIPPdRNS_9allocatorIS1_EEE5firstB7v160006Ev, symObjAddr: 0xC254, symBinAddr: 0x10000CD14, symSize: 0x24 }
  - { offsetInCU: 0x15CCC, offset: 0x1F454, size: 0x8, addend: 0x0, symName: __ZNSt3__19allocatorIdE9constructB7v160006IdJRKdEEEvPT_DpOT0_, symObjAddr: 0xC278, symBinAddr: 0x10000CD38, symSize: 0x28 }
  - { offsetInCU: 0x15D21, offset: 0x1F4A9, size: 0x8, addend: 0x0, symName: __ZNSt3__15dequeINS_12basic_stringIcNS_11char_traitsIcEENS_9allocatorIcEEEENS4_IS6_EEEaSERKS8_, symObjAddr: 0xC2A0, symBinAddr: 0x10000CD60, symSize: 0x90 }
  - { offsetInCU: 0x15D56, offset: 0x1F4DE, size: 0x8, addend: 0x0, symName: __ZNSt3__15dequeINS_12basic_stringIcNS_11char_traitsIcEENS_9allocatorIcEEEENS4_IS6_EEE19__copy_assign_allocB7v160006ERKS8_, symObjAddr: 0xC330, symBinAddr: 0x10000CDF0, symSize: 0x2C }
  - { offsetInCU: 0x15D89, offset: 0x1F511, size: 0x8, addend: 0x0, symName: __ZNSt3__15dequeINS_12basic_stringIcNS_11char_traitsIcEENS_9allocatorIcEEEENS4_IS6_EEE6assignINS_16__deque_iteratorIS6_PKS6_RSB_PKSC_lLl170EEEEEvT_SH_PNS_9enable_ifIXsr33__is_cpp17_random_access_iteratorISH_EE5valueEvE4typeE, symObjAddr: 0xC35C, symBinAddr: 0x10000CE1C, symSize: 0x180 }
  - { offsetInCU: 0x15E01, offset: 0x1F589, size: 0x8, addend: 0x0, symName: __ZNSt3__15dequeINS_12basic_stringIcNS_11char_traitsIcEENS_9allocatorIcEEEENS4_IS6_EEE19__copy_assign_allocB7v160006ERKS8_NS_17integral_constantIbLb0EEE, symObjAddr: 0xC4DC, symBinAddr: 0x10000CF9C, symSize: 0x14 }
  - { offsetInCU: 0x15E3D, offset: 0x1F5C5, size: 0x8, addend: 0x0, symName: __ZNKSt3__116__deque_iteratorINS_12basic_stringIcNS_11char_traitsIcEENS_9allocatorIcEEEEPKS6_RS7_PKS8_lLl170EEplB7v160006El, symObjAddr: 0xC4F0, symBinAddr: 0x10000CFB0, symSize: 0x40 }
  - { offsetInCU: 0x15E7F, offset: 0x1F607, size: 0x8, addend: 0x0, symName: __ZNSt3__15dequeINS_12basic_stringIcNS_11char_traitsIcEENS_9allocatorIcEEEENS4_IS6_EEE14__erase_to_endENS_16__deque_iteratorIS6_PKS6_RSA_PKSB_lLl170EEE, symObjAddr: 0xC5A8, symBinAddr: 0x10000D068, symSize: 0x168 }
  - { offsetInCU: 0x15F35, offset: 0x1F6BD, size: 0x8, addend: 0x0, symName: __ZNSt3__116__deque_iteratorINS_12basic_stringIcNS_11char_traitsIcEENS_9allocatorIcEEEEPKS6_RS7_PKS8_lLl170EEC1B7v160006IPS6_RS6_PSE_EERKNS0_IS6_T_T0_T1_lLl170EEEPNS_9enable_ifIXsr14is_convertibleISH_S8_EE5valueEvE4typeE, symObjAddr: 0xC710, symBinAddr: 0x10000D1D0, symSize: 0x3C }
  - { offsetInCU: 0x15F93, offset: 0x1F71B, size: 0x8, addend: 0x0, symName: __ZNSt3__116__deque_iteratorINS_12basic_stringIcNS_11char_traitsIcEENS_9allocatorIcEEEEPKS6_RS7_PKS8_lLl170EEpLB7v160006El, symObjAddr: 0xC74C, symBinAddr: 0x10000D20C, symSize: 0x120 }
  - { offsetInCU: 0x1600C, offset: 0x1F794, size: 0x8, addend: 0x0, symName: __ZNKSt3__111__copy_loopINS_17_ClassicAlgPolicyEEclB7v160006INS_16__deque_iteratorINS_12basic_stringIcNS_11char_traitsIcEENS_9allocatorIcEEEEPKSA_RSB_PKSC_lLl170EEENS4_ISA_PSA_RSA_PSH_lLl170EEELi0EEENS_4pairIT_T0_EESM_SM_SN_, symObjAddr: 0xCC64, symBinAddr: 0x10000D724, symSize: 0x238 }
  - { offsetInCU: 0x160C9, offset: 0x1F851, size: 0x8, addend: 0x0, symName: __ZNSt3__14pairINS_16__deque_iteratorINS_12basic_stringIcNS_11char_traitsIcEENS_9allocatorIcEEEEPKS7_RS8_PKS9_lLl170EEESD_EC1B7v160006ERKSD_SG_, symObjAddr: 0xD078, symBinAddr: 0x10000DB38, symSize: 0x3C }
  - { offsetInCU: 0x1610D, offset: 0x1F895, size: 0x8, addend: 0x0, symName: __ZNSt3__14pairINS_16__deque_iteratorINS_12basic_stringIcNS_11char_traitsIcEENS_9allocatorIcEEEEPKS7_RS8_PKS9_lLl170EEESD_EC2B7v160006ERKSD_SG_, symObjAddr: 0xD0B4, symBinAddr: 0x10000DB74, symSize: 0x34 }
  - { offsetInCU: 0x16151, offset: 0x1F8D9, size: 0x8, addend: 0x0, symName: __ZNSt3__118__unwrap_iter_implINS_16__deque_iteratorINS_12basic_stringIcNS_11char_traitsIcEENS_9allocatorIcEEEEPKS7_RS8_PKS9_lLl170EEELb0EE8__unwrapB7v160006ESD_, symObjAddr: 0xD0E8, symBinAddr: 0x10000DBA8, symSize: 0x24 }
  - { offsetInCU: 0x16173, offset: 0x1F8FB, size: 0x8, addend: 0x0, symName: __ZNSt3__127__segmented_iterator_traitsINS_16__deque_iteratorINS_12basic_stringIcNS_11char_traitsIcEENS_9allocatorIcEEEEPKS7_RS8_PKS9_lLl170EEEE9__segmentB7v160006ESD_, symObjAddr: 0xD10C, symBinAddr: 0x10000DBCC, symSize: 0x18 }
  - { offsetInCU: 0x16196, offset: 0x1F91E, size: 0x8, addend: 0x0, symName: __ZNSt3__127__segmented_iterator_traitsINS_16__deque_iteratorINS_12basic_stringIcNS_11char_traitsIcEENS_9allocatorIcEEEEPKS7_RS8_PKS9_lLl170EEEE7__localB7v160006ESD_, symObjAddr: 0xD168, symBinAddr: 0x10000DC28, symSize: 0x18 }
  - { offsetInCU: 0x161B9, offset: 0x1F941, size: 0x8, addend: 0x0, symName: __ZNSt3__127__segmented_iterator_traitsINS_16__deque_iteratorINS_12basic_stringIcNS_11char_traitsIcEENS_9allocatorIcEEEEPKS7_RS8_PKS9_lLl170EEEE5__endB7v160006ESC_, symObjAddr: 0xD1B8, symBinAddr: 0x10000DC78, symSize: 0x1C }
  - { offsetInCU: 0x161DC, offset: 0x1F964, size: 0x8, addend: 0x0, symName: __ZNSt3__127__segmented_iterator_traitsINS_16__deque_iteratorINS_12basic_stringIcNS_11char_traitsIcEENS_9allocatorIcEEEEPKS7_RS8_PKS9_lLl170EEEE7__beginB7v160006ESC_, symObjAddr: 0xD1D4, symBinAddr: 0x10000DC94, symSize: 0x18 }
  - { offsetInCU: 0x1621D, offset: 0x1F9A5, size: 0x8, addend: 0x0, symName: __ZNSt3__111__copy_loopINS_17_ClassicAlgPolicyEEclB7v160006IPKNS_12basic_stringIcNS_11char_traitsIcEENS_9allocatorIcEEEENS_16__deque_iteratorIS9_PS9_RS9_PSD_lLl170EEELi0EEENS_4pairIT_T0_EESI_SI_SJ_, symObjAddr: 0xD4AC, symBinAddr: 0x10000DF6C, symSize: 0x16C }
  - { offsetInCU: 0x162F5, offset: 0x1FA7D, size: 0x8, addend: 0x0, symName: __ZNSt3__14pairIPKNS_12basic_stringIcNS_11char_traitsIcEENS_9allocatorIcEEEES8_EC1B7v160006ERKS8_SB_, symObjAddr: 0xD6D8, symBinAddr: 0x10000E198, symSize: 0x3C }
  - { offsetInCU: 0x16339, offset: 0x1FAC1, size: 0x8, addend: 0x0, symName: __ZNSt3__14pairIPKNS_12basic_stringIcNS_11char_traitsIcEENS_9allocatorIcEEEES8_EC2B7v160006ERKS8_SB_, symObjAddr: 0xD714, symBinAddr: 0x10000E1D4, symSize: 0x34 }
  - { offsetInCU: 0x1637D, offset: 0x1FB05, size: 0x8, addend: 0x0, symName: __ZNSt3__118__unwrap_iter_implIPKNS_12basic_stringIcNS_11char_traitsIcEENS_9allocatorIcEEEELb1EE8__unwrapB7v160006ES8_, symObjAddr: 0xD748, symBinAddr: 0x10000E208, symSize: 0x24 }
  - { offsetInCU: 0x1639F, offset: 0x1FB27, size: 0x8, addend: 0x0, symName: __ZNSt3__127__segmented_iterator_traitsINS_16__deque_iteratorINS_12basic_stringIcNS_11char_traitsIcEENS_9allocatorIcEEEEPS7_RS7_PS8_lLl170EEEE7__localB7v160006ESB_, symObjAddr: 0xD780, symBinAddr: 0x10000E240, symSize: 0x18 }
  - { offsetInCU: 0x163C2, offset: 0x1FB4A, size: 0x8, addend: 0x0, symName: __ZNSt3__127__segmented_iterator_traitsINS_16__deque_iteratorINS_12basic_stringIcNS_11char_traitsIcEENS_9allocatorIcEEEEPS7_RS7_PS8_lLl170EEEE9__segmentB7v160006ESB_, symObjAddr: 0xD798, symBinAddr: 0x10000E258, symSize: 0x18 }
  - { offsetInCU: 0x163E5, offset: 0x1FB6D, size: 0x8, addend: 0x0, symName: __ZNSt3__127__segmented_iterator_traitsINS_16__deque_iteratorINS_12basic_stringIcNS_11char_traitsIcEENS_9allocatorIcEEEEPS7_RS7_PS8_lLl170EEEE5__endB7v160006ESA_, symObjAddr: 0xD7B0, symBinAddr: 0x10000E270, symSize: 0x1C }
  - { offsetInCU: 0x16408, offset: 0x1FB90, size: 0x8, addend: 0x0, symName: __ZNSt3__127__segmented_iterator_traitsINS_16__deque_iteratorINS_12basic_stringIcNS_11char_traitsIcEENS_9allocatorIcEEEEPS7_RS7_PS8_lLl170EEEE9__composeB7v160006ESA_S8_, symObjAddr: 0xD83C, symBinAddr: 0x10000E2FC, symSize: 0x84 }
  - { offsetInCU: 0x1643A, offset: 0x1FBC2, size: 0x8, addend: 0x0, symName: __ZNSt3__127__segmented_iterator_traitsINS_16__deque_iteratorINS_12basic_stringIcNS_11char_traitsIcEENS_9allocatorIcEEEEPS7_RS7_PS8_lLl170EEEE7__beginB7v160006ESA_, symObjAddr: 0xD8C0, symBinAddr: 0x10000E380, symSize: 0x18 }
  - { offsetInCU: 0x16471, offset: 0x1FBF9, size: 0x8, addend: 0x0, symName: __ZNKSt3__16__lessIllEclB7v160006ERKlS3_, symObjAddr: 0xD92C, symBinAddr: 0x10000E3EC, symSize: 0x34 }
  - { offsetInCU: 0x164CA, offset: 0x1FC52, size: 0x8, addend: 0x0, symName: __ZNKSt3__111__copy_loopINS_17_ClassicAlgPolicyEEclB7v160006IPKNS_12basic_stringIcNS_11char_traitsIcEENS_9allocatorIcEEEESB_PS9_EENS_4pairIT_T1_EESE_T0_SF_, symObjAddr: 0xDB38, symBinAddr: 0x10000E5F8, symSize: 0x88 }
  - { offsetInCU: 0x16533, offset: 0x1FCBB, size: 0x8, addend: 0x0, symName: __ZNSt3__118__unwrap_iter_implIPNS_12basic_stringIcNS_11char_traitsIcEENS_9allocatorIcEEEELb1EE8__unwrapB7v160006ES7_, symObjAddr: 0xDC6C, symBinAddr: 0x10000E72C, symSize: 0x24 }
  - { offsetInCU: 0x16555, offset: 0x1FCDD, size: 0x8, addend: 0x0, symName: __ZNSt3__14pairIPKNS_12basic_stringIcNS_11char_traitsIcEENS_9allocatorIcEEEEPS6_EC1B7v160006ERKS8_RKS9_, symObjAddr: 0xDC90, symBinAddr: 0x10000E750, symSize: 0x3C }
  - { offsetInCU: 0x16599, offset: 0x1FD21, size: 0x8, addend: 0x0, symName: __ZNSt3__14pairIPKNS_12basic_stringIcNS_11char_traitsIcEENS_9allocatorIcEEEEPS6_EC2B7v160006ERKS8_RKS9_, symObjAddr: 0xDCCC, symBinAddr: 0x10000E78C, symSize: 0x34 }
  - { offsetInCU: 0x165DD, offset: 0x1FD65, size: 0x8, addend: 0x0, symName: __ZNSt3__118__unwrap_iter_implIPNS_12basic_stringIcNS_11char_traitsIcEENS_9allocatorIcEEEELb1EE8__rewrapB7v160006ES7_S7_, symObjAddr: 0xDD00, symBinAddr: 0x10000E7C0, symSize: 0x58 }
  - { offsetInCU: 0x1660D, offset: 0x1FD95, size: 0x8, addend: 0x0, symName: __ZNSt3__14pairIPKNS_12basic_stringIcNS_11char_traitsIcEENS_9allocatorIcEEEENS_16__deque_iteratorIS6_PS6_RS6_PSA_lLl170EEEEC1B7v160006ERKS8_RKSD_, symObjAddr: 0xDD58, symBinAddr: 0x10000E818, symSize: 0x3C }
  - { offsetInCU: 0x16651, offset: 0x1FDD9, size: 0x8, addend: 0x0, symName: __ZNSt3__14pairIPKNS_12basic_stringIcNS_11char_traitsIcEENS_9allocatorIcEEEENS_16__deque_iteratorIS6_PS6_RS6_PSA_lLl170EEEEC2B7v160006ERKS8_RKSD_, symObjAddr: 0xDD94, symBinAddr: 0x10000E854, symSize: 0x34 }
  - { offsetInCU: 0x16695, offset: 0x1FE1D, size: 0x8, addend: 0x0, symName: __ZNSt3__118__unwrap_iter_implIPKNS_12basic_stringIcNS_11char_traitsIcEENS_9allocatorIcEEEELb1EE8__rewrapB7v160006ES8_S8_, symObjAddr: 0xDE18, symBinAddr: 0x10000E8D8, symSize: 0x58 }
  - { offsetInCU: 0x166C5, offset: 0x1FE4D, size: 0x8, addend: 0x0, symName: __ZNSt3__14pairINS_16__deque_iteratorINS_12basic_stringIcNS_11char_traitsIcEENS_9allocatorIcEEEEPKS7_RS8_PKS9_lLl170EEENS1_IS7_PS7_RS7_PSE_lLl170EEEEC1B7v160006ERKSD_RKSH_, symObjAddr: 0xDE70, symBinAddr: 0x10000E930, symSize: 0x3C }
  - { offsetInCU: 0x16709, offset: 0x1FE91, size: 0x8, addend: 0x0, symName: __ZNSt3__14pairINS_16__deque_iteratorINS_12basic_stringIcNS_11char_traitsIcEENS_9allocatorIcEEEEPKS7_RS8_PKS9_lLl170EEENS1_IS7_PS7_RS7_PSE_lLl170EEEEC2B7v160006ERKSD_RKSH_, symObjAddr: 0xDEAC, symBinAddr: 0x10000E96C, symSize: 0x34 }
  - { offsetInCU: 0x1674D, offset: 0x1FED5, size: 0x8, addend: 0x0, symName: __ZNSt3__118__unwrap_iter_implINS_16__deque_iteratorINS_12basic_stringIcNS_11char_traitsIcEENS_9allocatorIcEEEEPS7_RS7_PS8_lLl170EEELb0EE8__unwrapB7v160006ESB_, symObjAddr: 0xDEE0, symBinAddr: 0x10000E9A0, symSize: 0x24 }
  - { offsetInCU: 0x1676F, offset: 0x1FEF7, size: 0x8, addend: 0x0, symName: __ZNSt3__118__unwrap_iter_implINS_16__deque_iteratorINS_12basic_stringIcNS_11char_traitsIcEENS_9allocatorIcEEEEPKS7_RS8_PKS9_lLl170EEELb0EE8__rewrapB7v160006ESD_SD_, symObjAddr: 0xDF8C, symBinAddr: 0x10000EA4C, symSize: 0x2C }
  - { offsetInCU: 0x1679B, offset: 0x1FF23, size: 0x8, addend: 0x0, symName: __ZNSt3__118__unwrap_iter_implINS_16__deque_iteratorINS_12basic_stringIcNS_11char_traitsIcEENS_9allocatorIcEEEEPS7_RS7_PS8_lLl170EEELb0EE8__rewrapB7v160006ESB_SB_, symObjAddr: 0xDFB8, symBinAddr: 0x10000EA78, symSize: 0x2C }
  - { offsetInCU: 0x167C7, offset: 0x1FF4F, size: 0x8, addend: 0x0, symName: __ZNSt3__116__deque_iteratorINS_12basic_stringIcNS_11char_traitsIcEENS_9allocatorIcEEEEPKS6_RS7_PKS8_lLl170EEC2B7v160006IPS6_RS6_PSE_EERKNS0_IS6_T_T0_T1_lLl170EEEPNS_9enable_ifIXsr14is_convertibleISH_S8_EE5valueEvE4typeE, symObjAddr: 0xDFE4, symBinAddr: 0x10000EAA4, symSize: 0x34 }
...
